******************************************************************************
                  TI ARM Linker PC v18.1.3                     
******************************************************************************
>> Linked Fri Apr 26 13:26:50 2019

OUTPUT FILE NAME:   <sport_tag_FlashROM.out>
ENTRY POINT SYMBOL: "ResetISR"  address: 0000a3cd


MEMORY CONFIGURATION

         name            origin    length      used     unused   attr    fill
----------------------  --------  ---------  --------  --------  ----  --------
  FLASH_IMG_HDR         00000000   000000a8  000000a5  00000003  R  X
  ENTRY                 000000a8   00000040  0000003c  00000004  R  X
  FLASH                 000000e8   00012f98  0000d838  00005760  R  X
  SRAM                  20000000   00003f50  00002973  000015dd  RW X


SEGMENT ALLOCATION MAP

run origin  load origin   length   init length attrs members
----------  ----------- ---------- ----------- ----- -------
00000000    00000000    0000d924   0000d924    r-x
  00000000    00000000    000000a5   000000a5    r-- .img_hdr
  000000a8    000000a8    0000003c   0000003c    r-- .resetVecs
  000000e8    000000e8    00000f18   00000f18    r-x .text.1
  00001000    00001000    00000028   00000028    r-- .const:ti_sysbios_heaps_HeapMem_Module__FXNS__C
  00001028    00001028    00000024   00000024    r-- .const:ti_sysbios_gates_GateHwi_Module__FXNS__C
  0000104c    0000104c    00000024   00000024    r-- .const:ti_sysbios_gates_GateMutex_Module__FXNS__C
  00001070    00001070    00000020   00000020    r-- .const:ti_sysbios_family_arm_m3_Hwi_Object__DESC__C
  00001090    00001090    00000020   00000020    r-- .const:ti_sysbios_gates_GateHwi_Object__DESC__C
  000010b0    000010b0    00000020   00000020    r-- .const:ti_sysbios_gates_GateMutex_Object__DESC__C
  000010d0    000010d0    00000020   00000020    r-- .const:ti_sysbios_hal_Hwi_Object__DESC__C
  000010f0    000010f0    00000020   00000020    r-- .const:ti_sysbios_heaps_HeapMem_Object__DESC__C
  00001110    00001110    00000020   00000020    r-- .const:ti_sysbios_knl_Clock_Object__DESC__C
  00001130    00001130    00000020   00000020    r-- .const:ti_sysbios_knl_Event_Object__DESC__C
  00001150    00001150    00000020   00000020    r-- .const:ti_sysbios_knl_Mailbox_Object__DESC__C
  00001170    00001170    00000020   00000020    r-- .const:ti_sysbios_knl_Queue_Object__DESC__C
  00001190    00001190    00000020   00000020    r-- .const:ti_sysbios_knl_Semaphore_Object__DESC__C
  000011b0    000011b0    00000020   00000020    r-- .const:ti_sysbios_knl_Swi_Object__DESC__C
  000011d0    000011d0    00000020   00000020    r-- .const:ti_sysbios_knl_Task_Object__DESC__C
  000011f0    000011f0    00000008   00000008    r-- .const:ti_sysbios_knl_Idle_funcList__C
  000011f8    000011f8    00000004   00000004    r-- .const:ti_sysbios_family_arm_cc26xx_Timer_startupNeeded__C
  000011fc    000011fc    00000004   00000004    r-- .const:ti_sysbios_family_arm_m3_Hwi_E_alreadyDefined__C
  00001200    00001200    00000004   00000004    r-- .const:ti_sysbios_family_arm_m3_Hwi_E_hwiLimitExceeded__C
  00001204    00001204    00000004   00000004    r-- .const:ti_sysbios_family_arm_m3_Hwi_NUM_INTERRUPTS__C
  00001208    00001208    00000004   00000004    r-- .const:ti_sysbios_family_arm_m3_Hwi_Object__count__C
  0000120c    0000120c    00000004   00000004    r-- .const:ti_sysbios_family_arm_m3_Hwi_Object__table__C
  00001210    00001210    00000004   00000004    r-- .const:ti_sysbios_family_arm_m3_Hwi_ccr__C
  00001214    00001214    00000004   00000004    r-- .const:ti_sysbios_family_arm_m3_Hwi_excHandlerFunc__C
  00001218    00001218    00000004   00000004    r-- .const:ti_sysbios_family_arm_m3_Hwi_nullIsrFunc__C
  0000121c    0000121c    00000004   00000004    r-- .const:ti_sysbios_family_arm_m3_Hwi_numSparseInterrupts__C
  00001220    00001220    00000004   00000004    r-- .const:ti_sysbios_family_arm_m3_Hwi_priGroup__C
  00001224    00001224    00000004   00000004    r-- .const:ti_sysbios_family_arm_m3_TaskSupport_stackAlignment__C
  00001228    00001228    00000004   00000004    r-- .const:ti_sysbios_heaps_HeapMem_E_memory__C
  0000122c    0000122c    00000004   00000004    r-- .const:ti_sysbios_heaps_HeapMem_Module__gateObj__C
  00001230    00001230    00000004   00000004    r-- .const:ti_sysbios_heaps_HeapMem_Object__count__C
  00001234    00001234    00000004   00000004    r-- .const:ti_sysbios_heaps_HeapMem_Object__table__C
  00001238    00001238    00000004   00000004    r-- .const:ti_sysbios_heaps_HeapMem_reqAlign__C
  0000123c    0000123c    00000004   00000004    r-- .const:ti_sysbios_knl_Clock_triggerClock__C
  00001240    00001240    00000004   00000004    r-- .const:ti_sysbios_knl_Mailbox_Object__count__C
  00001244    00001244    00000004   00000004    r-- .const:ti_sysbios_knl_Mailbox_Object__table__C
  00001248    00001248    00000004   00000004    r-- .const:ti_sysbios_knl_Mailbox_maxTypeAlign__C
  0000124c    0000124c    00000004   00000004    r-- .const:ti_sysbios_knl_Queue_Object__count__C
  00001250    00001250    00000004   00000004    r-- .const:ti_sysbios_knl_Queue_Object__table__C
  00001254    00001254    00000004   00000004    r-- .const:ti_sysbios_knl_Semaphore_eventPost__C
  00001258    00001258    00000004   00000004    r-- .const:ti_sysbios_knl_Semaphore_eventSync__C
  0000125c    0000125c    00000004   00000004    r-- .const:ti_sysbios_knl_Swi_Object__count__C
  00001260    00001260    00000004   00000004    r-- .const:ti_sysbios_knl_Swi_Object__table__C
  00001264    00001264    00000004   00000004    r-- .const:ti_sysbios_knl_Swi_numPriorities__C
  00001268    00001268    00000004   00000004    r-- .const:ti_sysbios_knl_Task_Object__count__C
  0000126c    0000126c    00000004   00000004    r-- .const:ti_sysbios_knl_Task_Object__table__C
  00001270    00001270    00000004   00000004    r-- .const:ti_sysbios_knl_Task_allBlockedFunc__C
  00001274    00001274    00000004   00000004    r-- .const:ti_sysbios_knl_Task_defaultStackHeap__C
  00001278    00001278    00000004   00000004    r-- .const:ti_sysbios_knl_Task_defaultStackSize__C
  0000127c    0000127c    00000004   00000004    r-- .const:ti_sysbios_knl_Task_numConstructedTasks__C
  00001280    00001280    00000002   00000002    r-- .const:ti_sysbios_family_arm_cc26xx_Timer_Module__id__C
  00001282    00001282    00000002   00000002    r-- .const:ti_sysbios_family_arm_cc26xx_TimestampProvider_useClockTimer__C
  00001284    00001284    00000002   00000002    r-- .const:ti_sysbios_family_arm_m3_Hwi_Module__id__C
  00001286    00001286    00000002   00000002    r-- .const:ti_sysbios_gates_GateHwi_Module__id__C
  00001288    00001288    00000002   00000002    r-- .const:ti_sysbios_gates_GateMutex_Module__id__C
  0000128a    0000128a    00000002   00000002    r-- .const:ti_sysbios_heaps_HeapMem_Module__id__C
  0000128c    0000128c    00000002   00000002    r-- .const:ti_sysbios_knl_Task_initStackFlag__C
  0000128e    0000128e    00000001   00000001    r-- .const:ti_sysbios_knl_Clock_tickMode__C
  00001290    00001290    00000008   00000008    r-- .const:xdc_runtime_Startup_firstFxns__C
  00001298    00001298    00000008   00000008    r-- .const:xdc_runtime_Startup_lastFxns__C
  000012a0    000012a0    00000004   00000004    r-- .const:xdc_runtime_Assert_E_assertFailed__C
  000012a4    000012a4    00000004   00000004    r-- .const:xdc_runtime_Error_E_memory__C
  000012a8    000012a8    00000004   00000004    r-- .const:xdc_runtime_Error_policyFxn__C
  000012ac    000012ac    00000004   00000004    r-- .const:xdc_runtime_Error_raiseHook__C
  000012b0    000012b0    00000004   00000004    r-- .const:xdc_runtime_IGateProvider_Interface__BASE__C
  000012b4    000012b4    00000004   00000004    r-- .const:xdc_runtime_IHeap_Interface__BASE__C
  000012b8    000012b8    00000004   00000004    r-- .const:xdc_runtime_IModule_Interface__BASE__C
  000012bc    000012bc    00000004   00000004    r-- .const:xdc_runtime_Memory_defaultHeapInstance__C
  000012c0    000012c0    00000004   00000004    r-- .const:xdc_runtime_Startup_execImpl__C
  000012c4    000012c4    00000004   00000004    r-- .const:xdc_runtime_Startup_maxPasses__C
  000012c8    000012c8    00000004   00000004    r-- .const:xdc_runtime_Startup_sfxnRts__C
  000012cc    000012cc    00000004   00000004    r-- .const:xdc_runtime_Startup_sfxnTab__C
  000012d0    000012d0    00000004   00000004    r-- .const:xdc_runtime_Startup_startModsFxn__C
  000012d4    000012d4    00000004   00000004    r-- .const:xdc_runtime_SysCallback_abortFxn__C
  000012d8    000012d8    00000004   00000004    r-- .const:xdc_runtime_SysCallback_exitFxn__C
  000012dc    000012dc    00000004   00000004    r-- .const:xdc_runtime_System_abortFxn__C
  000012e0    000012e0    00000004   00000004    r-- .const:xdc_runtime_System_exitFxn__C
  000012e4    000012e4    00000004   00000004    r-- .const:xdc_runtime_System_maxAtexitHandlers__C
  000012e8    000012e8    00000004   00000004    r-- .const:xdc_runtime_Text_charTab__C
  000012ec    000012ec    00000004   00000004    r-- .const:xdc_runtime_Text_nameEmpty__C
  000012f0    000012f0    00000004   00000004    r-- .const:xdc_runtime_Text_nameStatic__C
  000012f4    000012f4    00000004   00000004    r-- .const:xdc_runtime_Text_nameUnknown__C
  000012f8    000012f8    00000002   00000002    r-- .const:xdc_runtime_Error_maxDepth__C
  000012fa    000012fa    00000002   00000002    r-- .const:xdc_runtime_Memory_Module__id__C
  000012fc    000012fc    00000002   00000002    r-- .const:xdc_runtime_Text_charCnt__C
  000012fe    000012fe    00000002   00000002    r-- .const:xdc_runtime_Text_isLoaded__C
  00001300    00001300    00000001   00000001    r-- .const:xdc_runtime_Error_policy__C
  00001304    00001304    00000004   00000004    r-- .const:ti_sysbios_rom_ROM_ti_sysbios_family_arm_cc26xx_Timer_getCount64__E
  00001308    00001308    00000004   00000004    r-- .const:ti_sysbios_rom_ROM_ti_sysbios_family_arm_cc26xx_Timer_getCurrentTick__E
  0000130c    0000130c    00000004   00000004    r-- .const:ti_sysbios_rom_ROM_ti_sysbios_family_arm_cc26xx_Timer_getMaxTicks__E
  00001310    00001310    00000004   00000004    r-- .const:ti_sysbios_rom_ROM_ti_sysbios_family_arm_cc26xx_Timer_initDevice__I
  00001314    00001314    00000004   00000004    r-- .const:ti_sysbios_rom_ROM_ti_sysbios_family_arm_cc26xx_Timer_setNextTick__E
  00001318    00001318    00000004   00000004    r-- .const:ti_sysbios_rom_ROM_ti_sysbios_family_arm_cc26xx_Timer_setThreshold__I
  0000131c    0000131c    00000004   00000004    r-- .const:ti_sysbios_rom_ROM_ti_sysbios_family_arm_cc26xx_Timer_start__E
  00001320    00001320    00000004   00000004    r-- .const:ti_sysbios_rom_ROM_ti_sysbios_family_arm_cc26xx_TimestampProvider_get32__E
  00001324    00001324    00000004   00000004    r-- .const:ti_sysbios_rom_ROM_xdc_runtime_Startup_getState__I
  00001328    00001328    00000004   00000004    r-- .const:ti_sysbios_rom_ROM_xdc_runtime_System_SupportProxy_abort__E
  0000132c    0000132c    00000004   00000004    r-- .const:ti_sysbios_rom_ROM_xdc_runtime_System_SupportProxy_exit__E
  00001330    00001330    0000b688   0000b688    r-x .text.2
  0000c9b8    0000c9b8    00000938   00000938    r-- .const
  0000d2f0    0000d2f0    00000058   00000058    r-- .ccfg
  0000d348    0000d348    000005dc   000005dc    r-- .cinit
20000100    20000100    00000106   00000000    rw-
  20000100    20000100    00000044   00000000    rw- .data:ti_sysbios_knl_Task_Module__state__V
  20000144    20000144    00000034   00000000    rw- .data:ti_sysbios_family_arm_m3_Hwi_Module__state__V
  20000178    20000178    0000002c   00000000    rw- .data:ti_sysbios_knl_Clock_Module__state__V
  200001a4    200001a4    00000024   00000000    rw- .data:ti_sysbios_BIOS_Module__state__V
  200001c8    200001c8    0000001c   00000000    rw- .data:ti_sysbios_knl_Swi_Module__state__V
  200001e4    200001e4    00000008   00000000    rw- .data:ti_sysbios_family_arm_cc26xx_Timer_Module__state__V
  200001ec    200001ec    00000004   00000000    rw- .data:ti_sysbios_family_arm_cc26xx_TimestampProvider_Module__state__V
  200001f0    200001f0    00000008   00000000    rw- .data:xdc_runtime_Startup_Module__state__V
  200001f8    200001f8    00000008   00000000    rw- .data:xdc_runtime_System_Module__state__V
  20000200    20000200    00000004   00000000    rw- .data:xdc_runtime_Memory_Module__state__V
  20000204    20000204    00000002   00000000    rw- .data:xdc_runtime_Error_Module__state__V
20000430    20000430    00000010   00000000    rw-
  20000430    20000430    00000010   00000000    rw- .TI.bound:dmaSpi0RxControlTableEntry
20000440    20000440    00000010   00000000    rw-
  20000440    20000440    00000010   00000000    rw- .TI.bound:dmaSpi0TxControlTableEntry
20000500    20000500    00000010   00000000    rw-
  20000500    20000500    00000010   00000000    rw- .TI.bound:dmaSpi1RxControlTableEntry
20000510    20000510    00002375   00000000    rw-
  20000510    20000510    00000010   00000000    rw- .TI.bound:dmaSpi1TxControlTableEntry
  20000520    20000520    0000168f   00000000    rw- .data
  20001bb0    20001bb0    00000cd5   00000000    rw- .bss
20003b50    20003b50    00000400   00000000    rw-
  20003b50    20003b50    00000400   00000000    rw- .stack


SECTION ALLOCATION MAP

 output                                  attributes/
section   page    origin      length       input sections
--------  ----  ----------  ----------   ----------------
.text.1    0    000000e8    00000f18     
                  000000e8    00000958     simple_peripheral_oad_offchip.obj (.text:SimplePeripheral_taskFxn$3)
                  00000a40    00000008     (.tramp.ti_sysbios_knl_Event_pend__E.1)
                  00000a48    00000008     (.tramp.ti_sysbios_knl_Queue_get__E.1)
                  00000a50    00000008     (.tramp.ti_sysbios_knl_Queue_empty__E.1)
                  00000a58    0000059c     peripheral_observer.obj (.text:gapRole_taskFxn$22)
                  00000ff4    0000000c     display.aem3 : Display.oem3 (.text:Display_doClearLines)

.const:ti_sysbios_heaps_HeapMem_Module__FXNS__C 
*          0    00001000    00000028     
                  00001000    00000028     app_ble_pem3.oem3 (.const:ti_sysbios_heaps_HeapMem_Module__FXNS__C)

.const:ti_sysbios_gates_GateHwi_Module__FXNS__C 
*          0    00001028    00000024     
                  00001028    00000024     app_ble_pem3.oem3 (.const:ti_sysbios_gates_GateHwi_Module__FXNS__C)

.const:ti_sysbios_gates_GateMutex_Module__FXNS__C 
*          0    0000104c    00000024     
                  0000104c    00000024     app_ble_pem3.oem3 (.const:ti_sysbios_gates_GateMutex_Module__FXNS__C)

.const:ti_sysbios_family_arm_m3_Hwi_Object__DESC__C 
*          0    00001070    00000020     
                  00001070    00000020     app_ble_pem3.oem3 (.const:ti_sysbios_family_arm_m3_Hwi_Object__DESC__C)

.const:ti_sysbios_gates_GateHwi_Object__DESC__C 
*          0    00001090    00000020     
                  00001090    00000020     app_ble_pem3.oem3 (.const:ti_sysbios_gates_GateHwi_Object__DESC__C)

.const:ti_sysbios_gates_GateMutex_Object__DESC__C 
*          0    000010b0    00000020     
                  000010b0    00000020     app_ble_pem3.oem3 (.const:ti_sysbios_gates_GateMutex_Object__DESC__C)

.const:ti_sysbios_hal_Hwi_Object__DESC__C 
*          0    000010d0    00000020     
                  000010d0    00000020     app_ble_pem3.oem3 (.const:ti_sysbios_hal_Hwi_Object__DESC__C)

.const:ti_sysbios_heaps_HeapMem_Object__DESC__C 
*          0    000010f0    00000020     
                  000010f0    00000020     app_ble_pem3.oem3 (.const:ti_sysbios_heaps_HeapMem_Object__DESC__C)

.const:ti_sysbios_knl_Clock_Object__DESC__C 
*          0    00001110    00000020     
                  00001110    00000020     app_ble_pem3.oem3 (.const:ti_sysbios_knl_Clock_Object__DESC__C)

.const:ti_sysbios_knl_Event_Object__DESC__C 
*          0    00001130    00000020     
                  00001130    00000020     app_ble_pem3.oem3 (.const:ti_sysbios_knl_Event_Object__DESC__C)

.const:ti_sysbios_knl_Mailbox_Object__DESC__C 
*          0    00001150    00000020     
                  00001150    00000020     app_ble_pem3.oem3 (.const:ti_sysbios_knl_Mailbox_Object__DESC__C)

.const:ti_sysbios_knl_Queue_Object__DESC__C 
*          0    00001170    00000020     
                  00001170    00000020     app_ble_pem3.oem3 (.const:ti_sysbios_knl_Queue_Object__DESC__C)

.const:ti_sysbios_knl_Semaphore_Object__DESC__C 
*          0    00001190    00000020     
                  00001190    00000020     app_ble_pem3.oem3 (.const:ti_sysbios_knl_Semaphore_Object__DESC__C)

.const:ti_sysbios_knl_Swi_Object__DESC__C 
*          0    000011b0    00000020     
                  000011b0    00000020     app_ble_pem3.oem3 (.const:ti_sysbios_knl_Swi_Object__DESC__C)

.const:ti_sysbios_knl_Task_Object__DESC__C 
*          0    000011d0    00000020     
                  000011d0    00000020     app_ble_pem3.oem3 (.const:ti_sysbios_knl_Task_Object__DESC__C)

.const:ti_sysbios_knl_Idle_funcList__C 
*          0    000011f0    00000008     
                  000011f0    00000008     app_ble_pem3.oem3 (.const:ti_sysbios_knl_Idle_funcList__C)

.const:ti_sysbios_family_arm_cc26xx_Timer_startupNeeded__C 
*          0    000011f8    00000004     
                  000011f8    00000004     app_ble_pem3.oem3 (.const:ti_sysbios_family_arm_cc26xx_Timer_startupNeeded__C)

.const:ti_sysbios_family_arm_m3_Hwi_E_alreadyDefined__C 
*          0    000011fc    00000004     
                  000011fc    00000004     app_ble_pem3.oem3 (.const:ti_sysbios_family_arm_m3_Hwi_E_alreadyDefined__C)

.const:ti_sysbios_family_arm_m3_Hwi_E_hwiLimitExceeded__C 
*          0    00001200    00000004     
                  00001200    00000004     app_ble_pem3.oem3 (.const:ti_sysbios_family_arm_m3_Hwi_E_hwiLimitExceeded__C)

.const:ti_sysbios_family_arm_m3_Hwi_NUM_INTERRUPTS__C 
*          0    00001204    00000004     
                  00001204    00000004     app_ble_pem3.oem3 (.const:ti_sysbios_family_arm_m3_Hwi_NUM_INTERRUPTS__C)

.const:ti_sysbios_family_arm_m3_Hwi_Object__count__C 
*          0    00001208    00000004     
                  00001208    00000004     app_ble_pem3.oem3 (.const:ti_sysbios_family_arm_m3_Hwi_Object__count__C)

.const:ti_sysbios_family_arm_m3_Hwi_Object__table__C 
*          0    0000120c    00000004     
                  0000120c    00000004     app_ble_pem3.oem3 (.const:ti_sysbios_family_arm_m3_Hwi_Object__table__C)

.const:ti_sysbios_family_arm_m3_Hwi_ccr__C 
*          0    00001210    00000004     
                  00001210    00000004     app_ble_pem3.oem3 (.const:ti_sysbios_family_arm_m3_Hwi_ccr__C)

.const:ti_sysbios_family_arm_m3_Hwi_excHandlerFunc__C 
*          0    00001214    00000004     
                  00001214    00000004     app_ble_pem3.oem3 (.const:ti_sysbios_family_arm_m3_Hwi_excHandlerFunc__C)

.const:ti_sysbios_family_arm_m3_Hwi_nullIsrFunc__C 
*          0    00001218    00000004     
                  00001218    00000004     app_ble_pem3.oem3 (.const:ti_sysbios_family_arm_m3_Hwi_nullIsrFunc__C)

.const:ti_sysbios_family_arm_m3_Hwi_numSparseInterrupts__C 
*          0    0000121c    00000004     
                  0000121c    00000004     app_ble_pem3.oem3 (.const:ti_sysbios_family_arm_m3_Hwi_numSparseInterrupts__C)

.const:ti_sysbios_family_arm_m3_Hwi_priGroup__C 
*          0    00001220    00000004     
                  00001220    00000004     app_ble_pem3.oem3 (.const:ti_sysbios_family_arm_m3_Hwi_priGroup__C)

.const:ti_sysbios_family_arm_m3_TaskSupport_stackAlignment__C 
*          0    00001224    00000004     
                  00001224    00000004     app_ble_pem3.oem3 (.const:ti_sysbios_family_arm_m3_TaskSupport_stackAlignment__C)

.const:ti_sysbios_heaps_HeapMem_E_memory__C 
*          0    00001228    00000004     
                  00001228    00000004     app_ble_pem3.oem3 (.const:ti_sysbios_heaps_HeapMem_E_memory__C)

.const:ti_sysbios_heaps_HeapMem_Module__gateObj__C 
*          0    0000122c    00000004     
                  0000122c    00000004     app_ble_pem3.oem3 (.const:ti_sysbios_heaps_HeapMem_Module__gateObj__C)

.const:ti_sysbios_heaps_HeapMem_Object__count__C 
*          0    00001230    00000004     
                  00001230    00000004     app_ble_pem3.oem3 (.const:ti_sysbios_heaps_HeapMem_Object__count__C)

.const:ti_sysbios_heaps_HeapMem_Object__table__C 
*          0    00001234    00000004     
                  00001234    00000004     app_ble_pem3.oem3 (.const:ti_sysbios_heaps_HeapMem_Object__table__C)

.const:ti_sysbios_heaps_HeapMem_reqAlign__C 
*          0    00001238    00000004     
                  00001238    00000004     app_ble_pem3.oem3 (.const:ti_sysbios_heaps_HeapMem_reqAlign__C)

.const:ti_sysbios_knl_Clock_triggerClock__C 
*          0    0000123c    00000004     
                  0000123c    00000004     app_ble_pem3.oem3 (.const:ti_sysbios_knl_Clock_triggerClock__C)

.const:ti_sysbios_knl_Mailbox_Object__count__C 
*          0    00001240    00000004     
                  00001240    00000004     app_ble_pem3.oem3 (.const:ti_sysbios_knl_Mailbox_Object__count__C)

.const:ti_sysbios_knl_Mailbox_Object__table__C 
*          0    00001244    00000004     
                  00001244    00000004     app_ble_pem3.oem3 (.const:ti_sysbios_knl_Mailbox_Object__table__C)

.const:ti_sysbios_knl_Mailbox_maxTypeAlign__C 
*          0    00001248    00000004     
                  00001248    00000004     app_ble_pem3.oem3 (.const:ti_sysbios_knl_Mailbox_maxTypeAlign__C)

.const:ti_sysbios_knl_Queue_Object__count__C 
*          0    0000124c    00000004     
                  0000124c    00000004     app_ble_pem3.oem3 (.const:ti_sysbios_knl_Queue_Object__count__C)

.const:ti_sysbios_knl_Queue_Object__table__C 
*          0    00001250    00000004     
                  00001250    00000004     app_ble_pem3.oem3 (.const:ti_sysbios_knl_Queue_Object__table__C)

.const:ti_sysbios_knl_Semaphore_eventPost__C 
*          0    00001254    00000004     
                  00001254    00000004     app_ble_pem3.oem3 (.const:ti_sysbios_knl_Semaphore_eventPost__C)

.const:ti_sysbios_knl_Semaphore_eventSync__C 
*          0    00001258    00000004     
                  00001258    00000004     app_ble_pem3.oem3 (.const:ti_sysbios_knl_Semaphore_eventSync__C)

.const:ti_sysbios_knl_Swi_Object__count__C 
*          0    0000125c    00000004     
                  0000125c    00000004     app_ble_pem3.oem3 (.const:ti_sysbios_knl_Swi_Object__count__C)

.const:ti_sysbios_knl_Swi_Object__table__C 
*          0    00001260    00000004     
                  00001260    00000004     app_ble_pem3.oem3 (.const:ti_sysbios_knl_Swi_Object__table__C)

.const:ti_sysbios_knl_Swi_numPriorities__C 
*          0    00001264    00000004     
                  00001264    00000004     app_ble_pem3.oem3 (.const:ti_sysbios_knl_Swi_numPriorities__C)

.const:ti_sysbios_knl_Task_Object__count__C 
*          0    00001268    00000004     
                  00001268    00000004     app_ble_pem3.oem3 (.const:ti_sysbios_knl_Task_Object__count__C)

.const:ti_sysbios_knl_Task_Object__table__C 
*          0    0000126c    00000004     
                  0000126c    00000004     app_ble_pem3.oem3 (.const:ti_sysbios_knl_Task_Object__table__C)

.const:ti_sysbios_knl_Task_allBlockedFunc__C 
*          0    00001270    00000004     
                  00001270    00000004     app_ble_pem3.oem3 (.const:ti_sysbios_knl_Task_allBlockedFunc__C)

.const:ti_sysbios_knl_Task_defaultStackHeap__C 
*          0    00001274    00000004     
                  00001274    00000004     app_ble_pem3.oem3 (.const:ti_sysbios_knl_Task_defaultStackHeap__C)

.const:ti_sysbios_knl_Task_defaultStackSize__C 
*          0    00001278    00000004     
                  00001278    00000004     app_ble_pem3.oem3 (.const:ti_sysbios_knl_Task_defaultStackSize__C)

.const:ti_sysbios_knl_Task_numConstructedTasks__C 
*          0    0000127c    00000004     
                  0000127c    00000004     app_ble_pem3.oem3 (.const:ti_sysbios_knl_Task_numConstructedTasks__C)

.const:ti_sysbios_family_arm_cc26xx_Timer_Module__id__C 
*          0    00001280    00000002     
                  00001280    00000002     app_ble_pem3.oem3 (.const:ti_sysbios_family_arm_cc26xx_Timer_Module__id__C)

.const:ti_sysbios_family_arm_cc26xx_TimestampProvider_useClockTimer__C 
*          0    00001282    00000002     
                  00001282    00000002     app_ble_pem3.oem3 (.const:ti_sysbios_family_arm_cc26xx_TimestampProvider_useClockTimer__C)

.const:ti_sysbios_family_arm_m3_Hwi_Module__id__C 
*          0    00001284    00000002     
                  00001284    00000002     app_ble_pem3.oem3 (.const:ti_sysbios_family_arm_m3_Hwi_Module__id__C)

.const:ti_sysbios_gates_GateHwi_Module__id__C 
*          0    00001286    00000002     
                  00001286    00000002     app_ble_pem3.oem3 (.const:ti_sysbios_gates_GateHwi_Module__id__C)

.const:ti_sysbios_gates_GateMutex_Module__id__C 
*          0    00001288    00000002     
                  00001288    00000002     app_ble_pem3.oem3 (.const:ti_sysbios_gates_GateMutex_Module__id__C)

.const:ti_sysbios_heaps_HeapMem_Module__id__C 
*          0    0000128a    00000002     
                  0000128a    00000002     app_ble_pem3.oem3 (.const:ti_sysbios_heaps_HeapMem_Module__id__C)

.const:ti_sysbios_knl_Task_initStackFlag__C 
*          0    0000128c    00000002     
                  0000128c    00000002     app_ble_pem3.oem3 (.const:ti_sysbios_knl_Task_initStackFlag__C)

.const:ti_sysbios_knl_Clock_tickMode__C 
*          0    0000128e    00000001     
                  0000128e    00000001     app_ble_pem3.oem3 (.const:ti_sysbios_knl_Clock_tickMode__C)

.const:xdc_runtime_Startup_firstFxns__C 
*          0    00001290    00000008     
                  00001290    00000008     app_ble_pem3.oem3 (.const:xdc_runtime_Startup_firstFxns__C)

.const:xdc_runtime_Startup_lastFxns__C 
*          0    00001298    00000008     
                  00001298    00000008     app_ble_pem3.oem3 (.const:xdc_runtime_Startup_lastFxns__C)

.const:xdc_runtime_Assert_E_assertFailed__C 
*          0    000012a0    00000004     
                  000012a0    00000004     app_ble_pem3.oem3 (.const:xdc_runtime_Assert_E_assertFailed__C)

.const:xdc_runtime_Error_E_memory__C 
*          0    000012a4    00000004     
                  000012a4    00000004     app_ble_pem3.oem3 (.const:xdc_runtime_Error_E_memory__C)

.const:xdc_runtime_Error_policyFxn__C 
*          0    000012a8    00000004     
                  000012a8    00000004     app_ble_pem3.oem3 (.const:xdc_runtime_Error_policyFxn__C)

.const:xdc_runtime_Error_raiseHook__C 
*          0    000012ac    00000004     
                  000012ac    00000004     app_ble_pem3.oem3 (.const:xdc_runtime_Error_raiseHook__C)

.const:xdc_runtime_IGateProvider_Interface__BASE__C 
*          0    000012b0    00000004     
                  000012b0    00000004     app_ble_pem3.oem3 (.const:xdc_runtime_IGateProvider_Interface__BASE__C)

.const:xdc_runtime_IHeap_Interface__BASE__C 
*          0    000012b4    00000004     
                  000012b4    00000004     app_ble_pem3.oem3 (.const:xdc_runtime_IHeap_Interface__BASE__C)

.const:xdc_runtime_IModule_Interface__BASE__C 
*          0    000012b8    00000004     
                  000012b8    00000004     app_ble_pem3.oem3 (.const:xdc_runtime_IModule_Interface__BASE__C)

.const:xdc_runtime_Memory_defaultHeapInstance__C 
*          0    000012bc    00000004     
                  000012bc    00000004     app_ble_pem3.oem3 (.const:xdc_runtime_Memory_defaultHeapInstance__C)

.const:xdc_runtime_Startup_execImpl__C 
*          0    000012c0    00000004     
                  000012c0    00000004     app_ble_pem3.oem3 (.const:xdc_runtime_Startup_execImpl__C)

.const:xdc_runtime_Startup_maxPasses__C 
*          0    000012c4    00000004     
                  000012c4    00000004     app_ble_pem3.oem3 (.const:xdc_runtime_Startup_maxPasses__C)

.const:xdc_runtime_Startup_sfxnRts__C 
*          0    000012c8    00000004     
                  000012c8    00000004     app_ble_pem3.oem3 (.const:xdc_runtime_Startup_sfxnRts__C)

.const:xdc_runtime_Startup_sfxnTab__C 
*          0    000012cc    00000004     
                  000012cc    00000004     app_ble_pem3.oem3 (.const:xdc_runtime_Startup_sfxnTab__C)

.const:xdc_runtime_Startup_startModsFxn__C 
*          0    000012d0    00000004     
                  000012d0    00000004     app_ble_pem3.oem3 (.const:xdc_runtime_Startup_startModsFxn__C)

.const:xdc_runtime_SysCallback_abortFxn__C 
*          0    000012d4    00000004     
                  000012d4    00000004     app_ble_pem3.oem3 (.const:xdc_runtime_SysCallback_abortFxn__C)

.const:xdc_runtime_SysCallback_exitFxn__C 
*          0    000012d8    00000004     
                  000012d8    00000004     app_ble_pem3.oem3 (.const:xdc_runtime_SysCallback_exitFxn__C)

.const:xdc_runtime_System_abortFxn__C 
*          0    000012dc    00000004     
                  000012dc    00000004     app_ble_pem3.oem3 (.const:xdc_runtime_System_abortFxn__C)

.const:xdc_runtime_System_exitFxn__C 
*          0    000012e0    00000004     
                  000012e0    00000004     app_ble_pem3.oem3 (.const:xdc_runtime_System_exitFxn__C)

.const:xdc_runtime_System_maxAtexitHandlers__C 
*          0    000012e4    00000004     
                  000012e4    00000004     app_ble_pem3.oem3 (.const:xdc_runtime_System_maxAtexitHandlers__C)

.const:xdc_runtime_Text_charTab__C 
*          0    000012e8    00000004     
                  000012e8    00000004     app_ble_pem3.oem3 (.const:xdc_runtime_Text_charTab__C)

.const:xdc_runtime_Text_nameEmpty__C 
*          0    000012ec    00000004     
                  000012ec    00000004     app_ble_pem3.oem3 (.const:xdc_runtime_Text_nameEmpty__C)

.const:xdc_runtime_Text_nameStatic__C 
*          0    000012f0    00000004     
                  000012f0    00000004     app_ble_pem3.oem3 (.const:xdc_runtime_Text_nameStatic__C)

.const:xdc_runtime_Text_nameUnknown__C 
*          0    000012f4    00000004     
                  000012f4    00000004     app_ble_pem3.oem3 (.const:xdc_runtime_Text_nameUnknown__C)

.const:xdc_runtime_Error_maxDepth__C 
*          0    000012f8    00000002     
                  000012f8    00000002     app_ble_pem3.oem3 (.const:xdc_runtime_Error_maxDepth__C)

.const:xdc_runtime_Memory_Module__id__C 
*          0    000012fa    00000002     
                  000012fa    00000002     app_ble_pem3.oem3 (.const:xdc_runtime_Memory_Module__id__C)

.const:xdc_runtime_Text_charCnt__C 
*          0    000012fc    00000002     
                  000012fc    00000002     app_ble_pem3.oem3 (.const:xdc_runtime_Text_charCnt__C)

.const:xdc_runtime_Text_isLoaded__C 
*          0    000012fe    00000002     
                  000012fe    00000002     app_ble_pem3.oem3 (.const:xdc_runtime_Text_isLoaded__C)

.const:xdc_runtime_Error_policy__C 
*          0    00001300    00000001     
                  00001300    00000001     app_ble_pem3.oem3 (.const:xdc_runtime_Error_policy__C)

.const:ti_sysbios_rom_ROM_ti_sysbios_family_arm_cc26xx_Timer_getCount64__E 
*          0    00001304    00000004     
                  00001304    00000004     app_ble_pem3.oem3 (.const:ti_sysbios_rom_ROM_ti_sysbios_family_arm_cc26xx_Timer_getCount64__E)

.const:ti_sysbios_rom_ROM_ti_sysbios_family_arm_cc26xx_Timer_getCurrentTick__E 
*          0    00001308    00000004     
                  00001308    00000004     app_ble_pem3.oem3 (.const:ti_sysbios_rom_ROM_ti_sysbios_family_arm_cc26xx_Timer_getCurrentTick__E)

.const:ti_sysbios_rom_ROM_ti_sysbios_family_arm_cc26xx_Timer_getMaxTicks__E 
*          0    0000130c    00000004     
                  0000130c    00000004     app_ble_pem3.oem3 (.const:ti_sysbios_rom_ROM_ti_sysbios_family_arm_cc26xx_Timer_getMaxTicks__E)

.const:ti_sysbios_rom_ROM_ti_sysbios_family_arm_cc26xx_Timer_initDevice__I 
*          0    00001310    00000004     
                  00001310    00000004     app_ble_pem3.oem3 (.const:ti_sysbios_rom_ROM_ti_sysbios_family_arm_cc26xx_Timer_initDevice__I)

.const:ti_sysbios_rom_ROM_ti_sysbios_family_arm_cc26xx_Timer_setNextTick__E 
*          0    00001314    00000004     
                  00001314    00000004     app_ble_pem3.oem3 (.const:ti_sysbios_rom_ROM_ti_sysbios_family_arm_cc26xx_Timer_setNextTick__E)

.const:ti_sysbios_rom_ROM_ti_sysbios_family_arm_cc26xx_Timer_setThreshold__I 
*          0    00001318    00000004     
                  00001318    00000004     app_ble_pem3.oem3 (.const:ti_sysbios_rom_ROM_ti_sysbios_family_arm_cc26xx_Timer_setThreshold__I)

.const:ti_sysbios_rom_ROM_ti_sysbios_family_arm_cc26xx_Timer_start__E 
*          0    0000131c    00000004     
                  0000131c    00000004     app_ble_pem3.oem3 (.const:ti_sysbios_rom_ROM_ti_sysbios_family_arm_cc26xx_Timer_start__E)

.const:ti_sysbios_rom_ROM_ti_sysbios_family_arm_cc26xx_TimestampProvider_get32__E 
*          0    00001320    00000004     
                  00001320    00000004     app_ble_pem3.oem3 (.const:ti_sysbios_rom_ROM_ti_sysbios_family_arm_cc26xx_TimestampProvider_get32__E)

.const:ti_sysbios_rom_ROM_xdc_runtime_Startup_getState__I 
*          0    00001324    00000004     
                  00001324    00000004     app_ble_pem3.oem3 (.const:ti_sysbios_rom_ROM_xdc_runtime_Startup_getState__I)

.const:ti_sysbios_rom_ROM_xdc_runtime_System_SupportProxy_abort__E 
*          0    00001328    00000004     
                  00001328    00000004     app_ble_pem3.oem3 (.const:ti_sysbios_rom_ROM_xdc_runtime_System_SupportProxy_abort__E)

.const:ti_sysbios_rom_ROM_xdc_runtime_System_SupportProxy_exit__E 
*          0    0000132c    00000004     
                  0000132c    00000004     app_ble_pem3.oem3 (.const:ti_sysbios_rom_ROM_xdc_runtime_System_SupportProxy_exit__E)

.text.2    0    00001330    0000b688     
                  00001330    0000058c     simple_peripheral_oad_offchip.obj (.text:SimplePeripheral_init$3)
                  000018bc    00000420     oad.obj (.text:oadImgBlockWrite$16)
                  00001cdc    00000418     oad.obj (.text:oadProcessExtControlCmd$16)
                  000020f4    00000314     drivers_cc26x0r2.aem3 : PowerCC26XX_calibrateRCOSC.oem3 (.text:PowerCC26XX_auxISR)
                  00002408    0000030c     rom_sysbios.aem3 : rom_sysbios.obj (.text:xdc_runtime_System_doPrint__I)
                  00002714    000002e0     simple_peripheral_oad_offchip.obj (.text:SimplePeripheral_processStackMsg$3)
                  000029f4    000002b8     RFCC26XX_singleMode.obj (.text:RF_fsmActiveState$6)
                  00002cac    00000290     peripheral_observer.obj (.text:GAPRole_SetParameter)
                  00002f3c    00000258     simple_peripheral_oad_offchip.obj (.text:SimplePeripheral_processStateChangeEvt$3)
                  00003194    00000258     drivers_cc26x0r2.aem3 : CryptoCC26XX.oem3 (.text:cryptoTransactionExecute)
                  000033ec    0000022c                           : PowerCC26XX.oem3 (.text:Power_sleep)
                  00003618    00000220     driverlib.lib : sys_ctrl.obj (.text:NOROM_SysCtrlSetRechargeBeforePowerDown)
                  00003838    0000021c     drivers_cc26x0r2.aem3 : SPICC26XXDMA.oem3 (.text:SPICC26XXDMA_transfer)
                  00003a54    0000020c     RFCC26XX_singleMode.obj (.text:RF_open)
                  00003c60    000001e0     ECCROMCC26XX.obj (.text:ECC_VerifyPublicKeyWeierstrass$5)
                  00003e40    000001bc     main.obj (.text:AssertHandler)
                  00003ffc    000001bc     RFCC26XX_singleMode.obj (.text:RF_fsmSetupState$6)
                  000041b8    000001b8     drivers_cc26x0r2.aem3 : PINCC26XX.oem3 (.text:PIN_init)
                  00004370    000001a4     ECCROMCC26XX.obj (.text:ECCROMCC26XX_genDHKey)
                  00004514    00000198     icall.obj (.text:icall_directAPI)
                  000046ac    00000190     drivers_cc26x0r2.aem3 : PowerCC26XX_calibrateRCOSC.oem3 (.text:PowerCC26XX_doCalibrate)
                  0000483c    00000184     simple_peripheral_oad_offchip.obj (.text:SimplePeripheral_processCharValueChangeEvt$3)
                  000049c0    00000168     drivers_cc26x0r2.aem3 : PowerCC26XX.oem3 (.text:Power_shutdown)
                  00004b28    00000158                           : SPICC26XXDMA.oem3 (.text:SPICC26XXDMA_initIO)
                  00004c80    00000154                           : UARTCC26XX.oem3 (.text:UARTCC26XX_open)
                  00004dd4    00000148                           : UARTCC26XX.oem3 (.text:UARTCC26XX_hwiIntFxn)
                  00004f1c    00000140     simple_peripheral_oad_offchip.obj (.text:SendAsk$3)
                  0000505c    00000134     drivers_cc26x0r2.aem3 : UARTCC26XX.oem3 (.text:UARTCC26XX_read)
                  00005190    0000012c                           : PowerCC26XX.oem3 (.text:Power_init)
                  000052bc    00000128     simple_peripheral_oad_offchip.obj (.text:ChangeWorkMode$3)
                  000053e4    00000128     ECCROMCC26XX.obj (.text:ECCROMCC26XX_genKeys)
                  0000550c    00000128     myBlink.obj (.text:SendToBlink)
                  00005634    00000124     peripheral_observer.obj (.text:GAPRole_GetParameter)
                  00005758    0000011c     drivers_cc26x0r2.aem3 : SPICC26XXDMA.oem3 (.text:SPICC26XXDMA_open)
                  00005874    00000114     simple_peripheral_oad_offchip.obj (.text:ExecuteCommand$3)
                  00005988    00000114     main.obj (.text:main)
                  00005a9c    0000010c     drivers_cc26x0r2.aem3 : SPICC26XXDMA.oem3 (.text:SPICC26XXDMA_configDMA)
                  00005ba8    0000010c     oad.obj (.text:oadValidateCandidateHdr$16)
                  00005cb4    00000104     drivers_cc26x0r2.aem3 : UARTCC26XX.oem3 (.text:UARTCC26XX_write)
                  00005db8    000000f8     app_ble_pem3.oem3 (.text:xdc_runtime_System_printfExtend__I)
                  00005eb0    000000ec     RFCC26XX_singleMode.obj (.text:RF_radioOpDoneCb$6)
                  00005f9c    000000e8     dpl_cc26x0r2.aem3 : PowerCC26XX_tirtos.oem3 (.text:PowerCC26XX_standbyPolicy)
                  00006084    000000e4     drivers_cc26x0r2.aem3 : SPICC26XXDMA.oem3 (.text:SPICC26XXDMA_transferCancel)
                  00006168    000000e4     oad.obj (.text:oadWriteAttrCB$16)
                  0000624c    000000dc     drivers_cc26x0r2.aem3 : PINCC26XX.oem3 (.text:PINCC26XX_setIoCfg)
                  00006328    000000d8                           : ADCCC26XX.oem3 (.text:ADCCC26XX_convert)
                  00006400    000000d4                           : CryptoCC26XX.oem3 (.text:CryptoCC26XX_open)
                  000064d4    000000d4     RFCC26XX_singleMode.obj (.text:RF_pendCmd)
                  000065a8    000000cc     RFCC26XX_singleMode.obj (.text:RF_swiHw$6)
                  00006674    000000c4     simple_peripheral_oad_offchip.obj (.text:GetAkkumVoltage$3)
                  00006738    000000c4     RFCC26XX_singleMode.obj (.text:RF_postCmd)
                  000067fc    000000c0     RFCC26XX_singleMode.obj (.text:RF_control)
                  000068bc    000000c0     RFCC26XX_singleMode.obj (.text:RF_fsmPowerUpState$6)
                  0000697c    000000bc     drivers_cc26x0r2.aem3 : PowerCC26XX.oem3 (.text:Power_releaseDependency)
                  00006a38    000000b8     ExtFlash.obj (.text:ExtFlash_open)
                  00006af0    000000b8     driverlib.lib : aux_adc.obj (.text:NOROM_AUXADCEnableSync)
                  00006ba8    000000b4                   : setup.obj (.text:NOROM_SetupTrimDevice)
                  00006c5c    000000b4     drivers_cc26x0r2.aem3 : PowerCC26XX.oem3 (.text:Power_setDependency)
                  00006d10    000000b4     devinfoservice.obj (.text:devInfo_ReadAttrCB$18)
                  00006dc4    000000b0     simple_peripheral_oad_offchip.obj (.text:ApplyParam$3)
                  00006e74    000000b0     TRNGCC26XX.obj (.text:TRNGCC26XX_getNumber)
                  00006f24    000000b0     myDataTransfer.obj (.text:myDataTransfer_WriteAttrCB$21)
                  00006fd4    000000ac     display.aem3 : DisplayUart.oem3 (.text:DisplayUartAnsi_clearLines)
                  00007080    000000ac     RFCC26XX_singleMode.obj (.text:RF_abortCmd$6)
                  0000712c    000000a7     display.aem3 : DisplayUart.oem3 (.text:DisplayUartAnsi_open)
                  000071d3    00000001     --HOLE-- [fill = 0]
                  000071d4    000000a6     rom_sysbios.aem3 : rom_sysbios.obj (.text:xdc_runtime_Text_putSite__E)
                  0000727a    00000002     ble_user_config.obj (.text:DefaultAssertCback)
                  0000727c    000000a4     simple_peripheral_oad_offchip.obj (.text:MyPowerDown)
                  00007320    000000a4     RFCC26XX_singleMode.obj (.text:RF_ratRestartChannels$6)
                  000073c4    000000a4     drivers_cc26x0r2.aem3 : PowerCC26XX.oem3 (.text:switchXOSCHFclockFunc)
                  00007468    000000a0                           : PINCC26XX.oem3 (.text:PIN_open)
                  00007508    000000a0                           : SPICC26XXDMA.oem3 (.text:SPICC26XXDMA_hwiFxn)
                  000075a8    000000a0     auto_init.aem3 : auto_init.oem3 (.text)
                  00007648    0000009f     display.aem3 : DisplayUart.oem3 (.text:DisplayUartAnsi_vprintf)
                  000076e7    00000001     --HOLE-- [fill = 0]
                  000076e8    0000009c     RFCC26XX_singleMode.obj (.text:RF_calculateDispatchTime$6)
                  00007784    0000009c     drivers_cc26x0r2.aem3 : UARTCC26XX.oem3 (.text:UARTCC26XX_writeCancel)
                  00007820    0000009c     rtsv7M3_T_le_eabi.lib : memcpy_t2.asm.obj (.text)
                  000078bc    00000098     drivers_cc26x0r2.aem3 : UARTCC26XX.oem3 (.text:UARTCC26XX_initHw)
                  00007954    00000098                           : UARTCC26XX.oem3 (.text:UARTCC26XX_initIO)
                  000079ec    00000098                           : UARTCC26XX.oem3 (.text:UARTCC26XX_swiIntFxn)
                  00007a84    00000098     rom_sysbios.aem3 : rom_sysbios.obj (.text:ti_sysbios_knl_Clock_workFuncDynamic__E)
                  00007b1c    00000098                      : rom_sysbios.obj (.text:xdc_runtime_Text_putMod__E)
                  00007bb4    00000096     rtsv7M3_T_le_eabi.lib : ull_div_t2.asm.obj (.text)
                  00007c4a    00000002     display.aem3 : DisplayUart.oem3 (.text:DisplayUartAnsi_init)
                  00007c4c    00000094     driverlib.lib : crypto.obj (.text:NOROM_CRYPTOAesLoadKey)
                  00007ce0    00000094     oad.obj (.text:oadFindCurrentImageHdr$16)
                  00007d74    00000090     drivers_cc26x0r2.aem3 : SPICC26XXDMA.oem3 (.text:SPICC26XXDMA_control)
                  00007e04    00000090     driverlib.lib : setup.obj (.text:TrimAfterColdResetWakeupFromShutDown$31)
                  00007e94    00000090     rom_sysbios.aem3 : rom_sysbios.obj (.text:ti_sysbios_family_arm_cc26xx_Timer_start__E)
                  00007f24    0000008c     CC2640R2_LAUNCHXL_fxns.obj (.text:CC2640R2_LAUNCHXL_shutDownExtFlash)
                  00007fb0    0000008c     icall.obj (.text:ICall_heapMalloc)
                  0000803c    0000008c     drivers_cc26x0r2.aem3 : SPICC26XXDMA.oem3 (.text:SPICC26XXDMA_swiFxn)
                  000080c8    0000008a                           : CryptoCC26XX.oem3 (.text:CryptoCC26XX_allocateKey)
                  00008152    00000002     RFCC26XX_singleMode.obj (.text:RF_defaultCallback$6)
                  00008154    00000088     drivers_cc26x0r2.aem3 : ADCCC26XX.oem3 (.text:ADCCC26XX_open)
                  000081dc    00000088     driverlib.lib : aux_adc.obj (.text:NOROM_AUXADCDisable)
                  00008264    00000084     gattservapp_util.obj (.text:GATTServApp_ProcessCharCfg)
                  000082e8    00000084     icall.obj (.text:ICall_setTimer)
                  0000836c    00000084     drivers_cc26x0r2.aem3 : UARTCC26XX.oem3 (.text:UARTCC26XX_close)
                  000083f0    00000084     rom_sysbios.aem3 : rom_sysbios.obj (.text:ti_sysbios_hal_SecondsClock_Module_startup__E)
                  00008474    00000084     flash_interface_ext_rtos.obj (.text:writeFlashPg)
                  000084f8    00000080     RFCC26XX_singleMode.obj (.text:RF_dispatchNextCmd$6)
                  00008578    00000080     RFCC26XX_singleMode.obj (.text:RF_ratFreeChannel$6)
                  000085f8    00000080     peripheral_observer.obj (.text:gapRole_startConnUpdate$22)
                  00008678    0000007e     gattservapp_util.obj (.text:gattServApp_SendNotiInd$20)
                  000086f6    00000002     rtsv7M3_T_le_eabi.lib : _lock.c.obj (.text:_nop)
                  000086f8    0000007c     RFCC26XX_singleMode.obj (.text:RF_hwiCpe0Active$6)
                  00008774    0000007c     myDataTransfer.obj (.text:myDataTransfer_ReadAttrCB$21)
                  000087f0    0000007c     oad.obj (.text:oadResetState$16)
                  0000886c    0000007c     oad.obj (.text:oadSendNotification$16)
                  000088e8    0000007a     simple_peripheral_oad_offchip.obj (.text:SimpleBLEPeripheralObserver_StateChangeCB$3)
                  00008962    0000007a     rtsv7M3_T_le_eabi.lib : memset_t2.asm.obj (.text)
                  000089dc    00000078     drivers_cc26x0r2.aem3 : UARTCC26XX.oem3 (.text:writeTxFifoFlush)
                  00008a54    00000070     icall.obj (.text:ICall_heapGetStats)
                  00008ac4    00000070     icall.obj (.text:ICall_heapInit)
                  00008b34    00000070     driverlib.lib : sys_ctrl.obj (.text:NOROM_SysCtrlAdjustRechargeAfterPowerDown)
                  00008ba4    00000070     drivers_cc26x0r2.aem3 : PowerCC26XX.oem3 (.text:lfClockReadyCallback)
                  00008c14    0000006d     rom_sysbios.aem3 : rom_sysbios.obj (.text:xdc_runtime_System_formatNum__I)
                  00008c81    00000001     --HOLE-- [fill = 0]
                  00008c82    00000002     drivers_cc26x0r2.aem3 : PowerCC26XX.oem3 (.text:emptyClockFunc)
                  00008c84    0000006c     icall.obj (.text:ICall_send)
                  00008cf0    0000006c     icall.obj (.text:ICall_sendServiceComplete)
                  00008d5c    0000006c     driverlib.lib : osc.obj (.text:NOROM_OSCHF_AttemptToSwitchToXosc)
                  00008dc8    0000006c     drivers_cc26x0r2.aem3 : PowerCC26XX_calibrateRCOSC.oem3 (.text:PowerCC26XX_initiateCalibration)
                  00008e34    0000006c                           : PowerCC26XX.oem3 (.text:configureXOSCHF)
                  00008ea0    0000006c     oad.obj (.text:oadFindExtFlMetaPage$16)
                  00008f0c    00000068     simple_peripheral_oad_offchip.obj (.text:AddBaseToList$3)
                  00008f74    00000068     driverlib.lib : sys_ctrl.obj (.text:NOROM_SysCtrl_DCDC_VoltageConditionalControl)
                  00008fdc    00000068     drivers_cc26x0r2.aem3 : PINCC26XX.oem3 (.text:PIN_add)
                  00009044    00000068     RFCC26XX_singleMode.obj (.text:RF_getCurrentTime)
                  000090ac    00000068     RFCC26XX_singleMode.obj (.text:RF_hwiHw$6)
                  00009114    00000068     simple_peripheral_oad_offchip.obj (.text:SimplePeripheral_freeAttRsp$3)
                  0000917c    00000068     drivers_cc26x0r2.aem3 : UARTCC26XX.oem3 (.text:UARTCC26XX_readCancel)
                  000091e4    00000068     rtsv7M3_T_le_eabi.lib : copy_decompress_lzss.c.obj (.text:decompress:lzss:__TI_decompress_lzss)
                  0000924c    00000064     drivers_cc26x0r2.aem3 : CryptoCC26XX.oem3 (.text:CryptoCC26XX_loadKey)
                  000092b0    00000064     oad.obj (.text:OAD_getSWVersion)
                  00009314    00000064     flash_interface_ext_rtos.obj (.text:eraseFlashPg)
                  00009378    00000060     gattservapp_util.obj (.text:GATTServApp_ProcessCCCWriteReq)
                  000093d8    00000060     icall.obj (.text:ICall_createRemoteTasksAtRuntime)
                  00009438    00000060     icall.obj (.text:ICall_enrollService)
                  00009498    00000060     drivers_cc26x0r2.aem3 : PowerCC26XX.oem3 (.text:PowerCC26XX_calibrate)
                  000094f8    00000060     RFCC26XX_singleMode.obj (.text:RF_dispatchNextEvent$6)
                  00009558    00000060     simple_peripheral_oad_offchip.obj (.text:WriteEprom_inter_osal$3)
                  000095b8    0000005f     rom_sysbios.aem3 : rom_sysbios.obj (.text:xdc_runtime_Text_putLab__E)
                  00009617    00000001     --HOLE-- [fill = 0]
                  00009618    0000005e     icall.obj (.text:ICall_fetchMsg)
                  00009676    00000002     hal_assert.obj (.text:halAssertSpinlock)
                  00009678    0000005c     display.aem3 : Display.oem3 (.text:Display_doOpen)
                  000096d4    0000005c     ExtFlash.obj (.text:ExtFlash_waitReady$13)
                  00009730    0000005c     icall.obj (.text:ICall_pwrUpdActivityCounter)
                  0000978c    0000005c     drivers_cc26x0r2.aem3 : PowerCC26XX_calibrateRCOSC.oem3 (.text:PowerCC26XX_RCOSC_clockFunc)
                  000097e8    0000005c     RFCC26XX_singleMode.obj (.text:RF_cmdDispatchTime$6)
                  00009844    0000005c     RFCC26XX_singleMode.obj (.text:RF_hwiCpe0PowerFsm$6)
                  000098a0    0000005c     drivers_cc26x0r2.aem3 : UDMACC26XX.oem3 (.text:UDMACC26XX_open)
                  000098fc    0000005c     app_ble_pem3.oem3 (.text:xdc_runtime_Startup_getState__I)
                  00009958    0000005a     RFCC26XX_singleMode.obj (.text:RF_syncCb$6)
                  000099b2    00000058     icall.obj (.text:ICall_wait)
                  00009a0a    00000002     rtsv7M3_T_le_eabi.lib : div0.asm.obj (.text)
                  00009a0c    00000058     drivers_cc26x0r2.aem3 : PINCC26XX.oem3 (.text:PIN_remove)
                  00009a64    00000058     RFCC26XX_singleMode.obj (.text:RF_fsmXOSCState$6)
                  00009abc    00000058     RFCC26XX_singleMode.obj (.text:RF_getInfo)
                  00009b14    00000058     drivers_cc26x0r2.aem3 : UARTCC26XX.oem3 (.text:UARTCC26XX_control)
                  00009b6c    00000058     simple_peripheral_oad_offchip.obj (.text:Util_convertBytes2Str)
                  00009bc4    00000054     ExtFlash.obj (.text:ExtFlash_close)
                  00009c18    00000054     RFCC26XX_singleMode.obj (.text:RF_discardPendCmd$6)
                  00009c6c    00000054     drivers_cc26x0r2.aem3 : SPICC26XXDMA.oem3 (.text:SPICC26XXDMA_initHw)
                  00009cc0    00000052                           : SPICC26XXDMA.oem3 (.text:SPICC26XXDMA_close)
                  00009d12    00000002     app_ble_pem3.oem3 (.text:ti_sysbios_BIOS_nullFunc__I)
                  00009d14    00000050     dpl_cc26x0r2.aem3 : ClockP_tirtos.oem3 (.text:ClockP_construct)
                  00009d64    00000050     ECCROMCC26XX.obj (.text:ECCROMCC26XX_Params_init)
                  00009db4    00000050     icall.obj (.text:ICall_registerApp)
                  00009e04    00000050     myDataTransfer.obj (.text:MyDataTransfer_SetParameter)
                  00009e54    00000050     simple_peripheral_oad_offchip.obj (.text:SimplePeripheral_enqueueMsg$3)
                  00009ea4    00000050     util.obj (.text:Util_convertBdAddr2Str)
                  00009ef4    00000050     oad.obj (.text:oadEnqueueMsg$16)
                  00009f44    00000050     drivers_cc26x0r2.aem3 : UARTCC26XX.oem3 (.text:startTxFifoEmptyClk)
                  00009f94    0000004c     board_key.obj (.text:Board_keyChangeHandler_short$0)
                  00009fe0    0000004c     icall.obj (.text:ICall_newTask$8)
                  0000a02c    0000004c     RFCC26XX_singleMode.obj (.text:RF_wakeupNotification$6)
                  0000a078    0000004c     rtsv7M3_T_le_eabi.lib : cpy_tbl.c.obj (.text:copy_in)
                  0000a0c4    00000048     CC2640R2_LAUNCHXL_fxns.obj (.text:CC2640R2_LAUNCHXL_wakeUpExtFlash)
                  0000a10c    00000048     ECCROMCC26XX.obj (.text:ECC_initGlobals$5)
                  0000a154    00000048     drivers_cc26x0r2.aem3 : PINCC26XX.oem3 (.text:PIN_setOutputEnable)
                  0000a19c    00000048     simple_peripheral_oad_offchip.obj (.text:SaveBaseTable$3)
                  0000a1e4    00000048     util.obj (.text:Util_constructClock)
                  0000a22c    00000048     rom_sysbios.aem3 : rom_sysbios.obj (.text:ti_sysbios_family_arm_cc26xx_Timer_setThreshold__I)
                  0000a274    00000048     drivers_cc26x0r2.aem3 : UARTCC26XX.oem3 (.text:writeFinishedDoCallback)
                  0000a2bc    00000044     board_key.obj (.text:Board_keyChangeHandler_long$0)
                  0000a300    00000044     driverlib.lib : osc.obj (.text:NOROM_OSCHF_SwitchToRcOscTurnOffXosc)
                  0000a344    00000044     drivers_cc26x0r2.aem3 : RingBuf.oem3 (.text:RingBuf_put)
                  0000a388    00000044                           : SPICC26XXDMA.oem3 (.text:SPICC26XXDMA_csnCallback)
                  0000a3cc    00000044     boot.aem3 : boot.oem3 (.text)
                  0000a410    00000044     rom_sysbios.aem3 : rom_sysbios.obj (.text:ti_sysbios_hal_SecondsClock_increment__I)
                  0000a454    00000044                      : rom_sysbios.obj (.text:xdc_runtime_Text_xprintf__I)
                  0000a498    00000042     driverlib.lib : ssi.obj (.text:NOROM_SSIConfigSetExpClk)
                  0000a4da    00000002     app_ble_pem3.oem3 (.text:ti_sysbios_rom_cortexm_cc26xx_r2_CC26xx_badRomRevision__E)
                  0000a4dc    00000040     drivers_cc26x0r2.aem3 : ADCCC26XX.oem3 (.text:ADCCC26XX_convertToMicroVolts)
                  0000a51c    00000040                           : ADC.oem3 (.text:ADC_init)
                  0000a55c    00000040                           : ADC.oem3 (.text:ADC_open)
                  0000a59c    00000040     ECCROMCC26XX.obj (.text:ECCROMCC26XX_init)
                  0000a5dc    00000040     ExtFlash.obj (.text:ExtFlash_read)
                  0000a61c    00000040     ExtFlash.obj (.text:ExtFlash_readInfo$13)
                  0000a65c    00000040     peripheral_observer.obj (.text:GAPRole_createTask)
                  0000a69c    00000040     drivers_cc26x0r2.aem3 : PINCC26XX.oem3 (.text:PINCC26XX_getConfig)
                  0000a6dc    00000040                           : PINCC26XX.oem3 (.text:PIN_swi)
                  0000a71c    00000040                           : PowerCC26XX.oem3 (.text:PowerCC26XX_isStableXOSC_HF)
                  0000a75c    00000040                           : SPI.oem3 (.text:SPI_init)
                  0000a79c    00000040                           : SPI.oem3 (.text:SPI_open)
                  0000a7dc    00000040                           : UART.oem3 (.text:UART_init)
                  0000a81c    00000040                           : UART.oem3 (.text:UART_open)
                  0000a85c    00000040     oad.obj (.text:oadInactivityTimeout$16)
                  0000a89c    00000040     rtsv7M3_T_le_eabi.lib : u_divt2.asm.obj (.text)
                  0000a8dc    00000040     rom_sysbios.aem3 : rom_sysbios.obj (.text:ti_sysbios_heaps_HeapCallback_Module_startup__E)
                  0000a91c    0000003e     dpl_cc26x0r2.aem3 : HwiP_tirtos.oem3 (.text:HwiP_construct)
                  0000a95a    0000003e     drivers_cc26x0r2.aem3 : RingBuf.oem3 (.text:RingBuf_get)
                  0000a998    0000003c                           : ADCCC26XX.oem3 (.text:ADCCC26XX_close)
                  0000a9d4    0000003c     board_key.obj (.text:Board_keyChangeHandler_verylong$0)
                  0000aa10    0000003c     driverlib.lib : osc.obj (.text:NOROM_OSC_HPOSCRelativeFrequencyOffsetGet)
                  0000aa4c    0000003c     RFCC26XX_singleMode.obj (.text:RF_cmdStoreEvents$6)
                  0000aa88    0000003c     simple_peripheral_oad_offchip.obj (.text:SimplePeripheral_createTask)
                  0000aac4    0000003c     dpl_cc26x0r2.aem3 : SwiP_tirtos.oem3 (.text:SwiP_construct)
                  0000ab00    0000003c     drivers_cc26x0r2.aem3 : PowerCC26XX.oem3 (.text:disableLfClkQualifiersEnableClkLoss)
                  0000ab3c    0000003c     rom_sysbios.aem3 : rom_sysbios.obj (.text:ti_sysbios_family_arm_m3_Hwi_construct2__E)
                  0000ab78    00000038     myDataTransfer.obj (.text:MyDataTransfer_GetParameter)
                  0000abb0    00000038     drivers_cc26x0r2.aem3 : PINCC26XX.oem3 (.text:PIN_setConfig)
                  0000abe8    00000038                           : PINCC26XX.oem3 (.text:PIN_setInterrupt)
                  0000ac20    00000038                           : PINCC26XX.oem3 (.text:PIN_setOutputValue)
                  0000ac58    00000038     RFCC26XX_singleMode.obj (.text:RF_checkCmdFsError$6)
                  0000ac90    00000038     RFCC26XX_singleMode.obj (.text:RF_powerConstraintRelease)
                  0000acc8    00000038     util.obj (.text:Util_restartClock)
                  0000ad00    00000038     rom_sysbios.aem3 : rom_sysbios.obj (.text:ti_sysbios_family_arm_cc26xx_Seconds_get__E)
                  0000ad38    00000038                      : rom_sysbios.obj (.text:ti_sysbios_family_arm_cc26xx_Timer_getCurrentTick__E)
                  0000ad70    00000036     drivers_cc26x0r2.aem3 : UDMACC26XX.oem3 (.text:UDMACC26XX_close)
                  0000ada6    00000002     rom_sysbios.aem3 : rom_sysbios.obj (.text:xdc_runtime_SysCallback_defaultAbort)
                  0000ada8    00000034     peripheral_observer.obj (.text:GAPRole_StartDiscovery)
                  0000addc    00000034     icall.obj (.text:ICall_heapFree)
                  0000ae10    00000034     icall.obj (.text:ICall_primEntityId2ServiceId$8)
                  0000ae44    00000034     icall.obj (.text:ICall_searchServiceEntity)
                  0000ae78    00000034     drivers_cc26x0r2.aem3 : PowerCC26XX.oem3 (.text:Power_releaseConstraint)
                  0000aeac    00000034     RFCC26XX_singleMode.obj (.text:RF_runDirectImmediateCmd$6)
                  0000aee0    00000034     simple_peripheral_oad_offchip.obj (.text:SimplePeripheral_RegistertToAllConnectionEvent)
                  0000af14    00000034     simple_peripheral_oad_offchip.obj (.text:SimplePeripheral_passcodeCB$3)
                  0000af48    00000034     drivers_cc26x0r2.aem3 : PowerCC26XX.oem3 (.text:notify)
                  0000af7c    00000034     rom_sysbios.aem3 : rom_sysbios.obj (.text:ti_sysbios_family_arm_cc26xx_Timer_initDevice__I)
                  0000afb0    00000034                      : rom_sysbios.obj (.text:ti_sysbios_knl_Swi_setPri__E)
                  0000afe4    00000032     icall.obj (.text:ICall_fetchServiceMsg)
                  0000b016    00000032     rom_sysbios.aem3 : rom_sysbios.obj (.text:ti_sysbios_family_arm_cc26xx_Timer_setNextTick__E)
                  0000b048    00000030     icall.obj (.text:ICall_dispatch$8)
                  0000b078    00000030     icall.obj (.text:ICall_msecs2Ticks$8)
                  0000b0a8    00000030     driverlib.lib : aux_adc.obj (.text:NOROM_AUXADCDisableInputScaling)
                  0000b0d8    00000030     drivers_cc26x0r2.aem3 : PINCC26XX.oem3 (.text:PINCC26XX_setMux)
                  0000b108    00000030                           : PowerCC26XX.oem3 (.text:Power_setConstraint)
                  0000b138    00000030     RFCC26XX_singleMode.obj (.text:RF_cmdGet$6)
                  0000b168    00000030     ExtFlash.obj (.text:Spi_read$13)
                  0000b198    00000030     ExtFlash.obj (.text:Spi_write$13)
                  0000b1c8    00000030     app_ble_pem3.oem3 (.text:ti_sysbios_BIOS_atExitFunc__I)
                  0000b1f8    00000030     app_ble_pem3.oem3 (.text:ti_sysbios_BIOS_startFunc__I)
                  0000b228    00000030     app_ble_pem3.oem3 (.text:ti_sysbios_heaps_HeapCallback_Object__create__S)
                  0000b258    0000002e     icall_cc2650.obj (.text:ICallPlatform_pwrDispenseImpl$9)
                  0000b286    0000002e     icall_cc2650.obj (.text:ICallPlatform_pwrRequireImpl$9)
                  0000b2b4    0000002e     drivers_cc26x0r2.aem3 : CryptoCC26XX.oem3 (.text:cryptoTransactionPend)
                  0000b2e2    0000002e                           : UARTCC26XX.oem3 (.text:readData)
                  0000b310    0000002e     app_ble_pem3.oem3 (.text:ti_sysbios_rts_gnu_MemAlloc_alloc)
                  0000b33e    0000002e     drivers_cc26x0r2.aem3 : UARTCC26XX.oem3 (.text:writeData)
                  0000b36c    0000002c     ExtFlash.obj (.text:ExtFlash_writeEnable$13)
                  0000b398    0000002c     peripheral_observer.obj (.text:GAPRole_TerminateConnection)
                  0000b3c4    0000002c     icall.obj (.text:ICall_msgEnqueue$8)
                  0000b3f0    0000002c     icall.obj (.text:ICall_searchTask$8)
                  0000b41c    0000002c     driverlib.lib : chipinfo.obj (.text:NOROM_ChipInfo_GetChipFamily)
                  0000b448    0000002c     RFCC26XX_singleMode.obj (.text:RF_calculateDeltaTimeUs$6)
                  0000b474    0000002c     RFCC26XX_singleMode.obj (.text:RF_executeDirectImmediateCmd$6)
                  0000b4a0    0000002c     driverlib.lib : adi.obj (.text:SafeHapiAuxAdiSelect)
                  0000b4cc    0000002c     dpl_cc26x0r2.aem3 : SemaphoreP_tirtos.oem3 (.text:SemaphoreP_constructBinary)
                  0000b4f8    0000002c                       : SemaphoreP_tirtos.oem3 (.text:SemaphoreP_createBinary)
                  0000b524    0000002c     oad.obj (.text:oadGetNextBlockReq$16)
                  0000b550    0000002c     rom_sysbios.aem3 : rom_sysbios.obj (.text:ti_sysbios_knl_Clock_getTicksUntilInterrupt__E)
                  0000b57c    0000002b                      : rom_sysbios.obj (.text:xdc_runtime_Text_printVisFxn__I)
                  0000b5a7    00000001     --HOLE-- [fill = 0]
                  0000b5a8    0000002a     display.aem3 : DisplayUart.oem3 (.text:DisplayUartAnsi_clear)
                  0000b5d2    0000002a                  : Display.oem3 (.text:Display_doPrintf)
                  0000b5fc    0000002a     rom_sysbios.aem3 : rom_sysbios.obj (.text:ti_sysbios_knl_Clock_getTimeout__E)
                  0000b626    0000002a                      : rom_sysbios.obj (.text:xdc_runtime_System_putchar__I)
                  0000b650    00000028     driverlib.lib : chipinfo.obj (.text:NOROM_ChipInfo_GetChipType)
                  0000b678    00000028                   : rfc.obj (.text:NOROM_RFCDoorbellSendTo)
                  0000b6a0    00000028     drivers_cc26x0r2.aem3 : PINCC26XX.oem3 (.text:PINCC26XX_setWakeup)
                  0000b6c8    00000028                           : PowerCC26XX.oem3 (.text:Power_registerNotify)
                  0000b6f0    00000028     RFCC26XX_singleMode.obj (.text:RF_runCmd)
                  0000b718    00000028     drivers_cc26x0r2.aem3 : SPICC26XXDMA.oem3 (.text:SPICC26XXDMA_flushFifos)
                  0000b740    00000028     driverlib.lib : adi.obj (.text:SafeHapiVoid)
                  0000b768    00000028     TRNGCC26XX.obj (.text:TRNGCC26XX_init)
                  0000b790    00000028     bim_util.obj (.text:imgIDCheck)
                  0000b7b8    00000028     drivers_cc26x0r2.aem3 : UARTCC26XX.oem3 (.text:readData2RingBuf)
                  0000b7e0    00000024     board_key.obj (.text:Board_keyCallback$0)
                  0000b804    00000024     drivers_cc26x0r2.aem3 : CryptoCC26XX.oem3 (.text:CryptoCC26XX_hwiIntFxn)
                  0000b828    00000024     icall.obj (.text:ICall_getLocalMsgEntityId)
                  0000b84c    00000024     drivers_cc26x0r2.aem3 : List.oem3 (.text:List_remove)
                  0000b870    00000024     driverlib.lib : osc.obj (.text:NOROM_OSCHF_TurnOnXosc)
                  0000b894    00000024     rtsv7M3_T_le_eabi.lib : memcmp.c.obj (.text:memcmp)
                  0000b8b8    00000024     app_ble_pem3.oem3 (.text:ti_sysbios_BIOS_registerRTSLock__I)
                  0000b8dc    00000024     app_ble_pem3.oem3 (.text:ti_sysbios_BIOS_removeRTSLock__I)
                  0000b900    00000024     rom_sysbios.aem3 : rom_sysbios.obj (.text:ti_sysbios_family_arm_cc26xx_Seconds_set__E)
                  0000b924    00000024                      : rom_sysbios.obj (.text:ti_sysbios_family_arm_cc26xx_Timer_getMaxTicks__E)
                  0000b948    00000024                      : rom_sysbios.obj (.text:ti_sysbios_family_arm_m3_Hwi_romInitNVIC__I)
                  0000b96c    00000022     icall.obj (.text:ICall_setTimerMSecs)
                  0000b98e    00000022     drivers_cc26x0r2.aem3 : List.oem3 (.text:List_get)
                  0000b9b0    00000022                           : List.oem3 (.text:List_put)
                  0000b9d2    00000022     driverlib.lib : aux_adc.obj (.text:NOROM_AUXADCAdjustValueForGainAndOffset)
                  0000b9f4    00000022                   : uart.obj (.text:NOROM_UARTConfigSetExpClk)
                  0000ba16    00000002     rom_sysbios.aem3 : rom_sysbios.obj (.text:xdc_runtime_SysCallback_defaultExit)
                  0000ba18    00000020     drivers_cc26x0r2.aem3 : CryptoCC26XX.oem3 (.text:CryptoCC26XX_init)
                  0000ba38    00000020     peripheral_observer.obj (.text:GAPRole_CancelDiscovery)
                  0000ba58    00000020     gattservapp_util.obj (.text:GATTServApp_InitCharCfg)
                  0000ba78    00000020     driverlib.lib : uart.obj (.text:NOROM_UARTDisable)
                  0000ba98    00000020     dpl_cc26x0r2.aem3 : PowerCC26XX_tirtos.oem3 (.text:PowerCC26XX_schedulerDisable)
                  0000bab8    00000020                       : PowerCC26XX_tirtos.oem3 (.text:PowerCC26XX_schedulerRestore)
                  0000bad8    00000020     drivers_cc26x0r2.aem3 : PowerCC26XX.oem3 (.text:Power_unregisterNotify)
                  0000baf8    00000020     RFCC26XX_singleMode.obj (.text:RF_clkPowerUp$6)
                  0000bb18    00000020     RFCC26XX_singleMode.obj (.text:RF_ratIsRunning$6)
                  0000bb38    00000020     gattservapp_util.obj (.text:gattServApp_FindCharCfgItem$20)
                  0000bb58    00000020     app_ble_pem3.oem3 (.text:ti_sysbios_BIOS_rtsLock__I)
                  0000bb78    00000020     rom_sysbios.aem3 : rom_sysbios.obj (.text:ti_sysbios_family_arm_cc26xx_Timer_dynamicStub__E)
                  0000bb98    00000020                      : rom_sysbios.obj (.text:xdc_runtime_Registry_findById__E)
                  0000bbb8    0000001e     ECCROMCC26XX.obj (.text:ECC_ArrayAllZeros)
                  0000bbd6    0000001e     drivers_cc26x0r2.aem3 : PINCC26XX.oem3 (.text:PIN_close)
                  0000bbf4    0000001e                           : PowerCC26XX.oem3 (.text:Power_getTransitionLatency)
                  0000bc12    00000002     rom_sysbios.aem3 : rom_sysbios.obj (.text:xdc_runtime_SysCallback_defaultPutch)
                  0000bc14    0000001c     icall_api_lite.obj (.text:GATT_bm_alloc)
                  0000bc30    0000001c     icall_api_lite.obj (.text:GATT_bm_free)
                  0000bc4c    0000001c     simple_peripheral_oad_offchip.obj (.text:GetCRC8$3)
                  0000bc68    0000001c     icall.obj (.text:ICall_mallocLimited)
                  0000bc84    0000001c     icall.obj (.text:ICall_primRepostSync$8)
                  0000bca0    0000001c     driverlib.lib : aux_adc.obj (.text:NOROM_AUXADCGetAdjustmentGain)
                  0000bcbc    0000001c     drivers_cc26x0r2.aem3 : PINCC26XX.oem3 (.text:PINCC26XX_setIoCfgMux)
                  0000bcd8    0000001c                           : PINCC26XX.oem3 (.text:PIN_hwi)
                  0000bcf4    0000001c     RFCC26XX_singleMode.obj (.text:RF_clkInactivityCallback$6)
                  0000bd10    0000001c     RFCC26XX_singleMode.obj (.text:RF_getRssi)
                  0000bd2c    0000001c     RFCC26XX_singleMode.obj (.text:RF_powerConstraintSet)
                  0000bd48    0000001c     simple_peripheral_oad_offchip.obj (.text:ReadEprom_inter_osal$3)
                  0000bd64    0000001c     TRNGCC26XX.obj (.text:TRNGCC26XX_open)
                  0000bd80    0000001c     crc32.obj (.text:memCpy)
                  0000bd9c    0000001c     TRNGCC26XX.obj (.text:openTRNG)
                  0000bdb8    0000001c     rom_sysbios.aem3 : rom_sysbios.obj (.text:ti_sysbios_family_arm_m3_Hwi_clearInterrupt__E)
                  0000bdd4    0000001c                      : rom_sysbios_config.obj (.text:ti_sysbios_knl_Clock_Module__startupDone__S)
                  0000bdf0    0000001c                      : rom_sysbios.obj (.text:ti_sysbios_knl_Swi_construct2__E)
                  0000be0c    0000001a     icall.obj (.text:ICall_enterCSImpl)
                  0000be26    0000001a     dpl_cc26x0r2.aem3 : SystemP_tirtos.oem3 (.text:SystemP_snprintf)
                  0000be40    00000018     board_key.obj (.text:Board_Power_down)
                  0000be58    00000018     driverlib.lib : aux_adc.obj (.text:NOROM_AUXADCGetAdjustmentOffset)
                  0000be70    00000018                   : chipinfo.obj (.text:NOROM_ChipInfo_GetPackageType)
                  0000be88    00000018                   : rfc.obj (.text:NOROM_RFCCpeIntGetAndClear)
                  0000bea0    00000018     drivers_cc26x0r2.aem3 : PINCC26XX.oem3 (.text:PIN_getConfig)
                  0000beb8    00000018                           : PowerCC26XX.oem3 (.text:Power_idleFunc)
                  0000bed0    00000018     RFCC26XX_singleMode.obj (.text:RF_swiFsm$6)
                  0000bee8    00000018     simple_peripheral_oad_offchip.obj (.text:SimplePeripheral_connEvtCB$3)
                  0000bf00    00000018     board_key.obj (.text:Task_sleepMS)
                  0000bf18    00000018     drivers_cc26x0r2.aem3 : UARTCC26XX.oem3 (.text:UARTCC26XX_init)
                  0000bf30    00000018                           : UART.oem3 (.text:UART_Params_init)
                  0000bf48    00000018     rtsv7M3_T_le_eabi.lib : args_main.c.obj (.text:_args_main)
                  0000bf60    00000018     drivers_cc26x0r2.aem3 : CryptoCC26XX.oem3 (.text:cryptoTransactionPoll)
                  0000bf78    00000018     flash_interface_ext_rtos.obj (.text:flash_open)
                  0000bf90    00000018     app_ble_pem3.oem3 (.text:free)
                  0000bfa8    00000018     flash_interface_ext_rtos.obj (.text:readFlashPg)
                  0000bfc0    00000018     rtsv7M3_T_le_eabi.lib : ll_mul_t2.asm.obj (.text)
                  0000bfd8    00000018     app_ble_pem3.oem3 (.text:ti_sysbios_BIOS_rtsUnlock__I)
                  0000bff0    00000018     rom_sysbios.aem3 : rom_sysbios.obj (.text:ti_sysbios_heaps_HeapCallback_Instance_init__E)
                  0000c008    00000018                      : rom_sysbios.obj (.text:ti_sysbios_knl_Swi_or__E)
                  0000c020    00000018     app_ble_pem3.oem3 (.text:ti_sysbios_rom_cortexm_cc26xx_r2_CC26xx_checkRevision__E)
                  0000c038    00000018     rom_sysbios.aem3 : rom_sysbios.obj (.text:xdc_runtime_Error_init__E)
                  0000c050    00000016     display.aem3 : DisplayUart.oem3 (.text:DisplayUartAnsi_close)
                  0000c066    00000016     icall.obj (.text:ICall_leaveCSImpl)
                  0000c07c    00000016     icall.obj (.text:ICall_pwrDispense)
                  0000c092    00000016     icall.obj (.text:ICall_pwrRequire)
                  0000c0a8    00000016     RFCC26XX_singleMode.obj (.text:RF_restartClockTimeout$6)
                  0000c0be    00000016     ble_user_config.obj (.text:driverTable_fnSpinlock)
                  0000c0d4    00000016     oad.obj (.text:oadReadAttrCB$16)
                  0000c0ea    00000016     app_ble_pem3.oem3 (.text:ti_sysbios_BIOS_errorRaiseHook__I)
                  0000c100    00000016     app_ble_pem3.oem3 (.text:ti_sysbios_BIOS_exitFunc__I)
                  0000c116    00000002     --HOLE-- [fill = 0]
                  0000c118    00000014     board_key.obj (.text:Board_setVibro)
                  0000c12c    00000014     drivers_cc26x0r2.aem3 : List.oem3 (.text:List_clearList)
                  0000c140    00000014     driverlib.lib : aux_adc.obj (.text:NOROM_AUXADCValueToMicrovolts)
                  0000c154    00000014     drivers_cc26x0r2.aem3 : PINCC26XX.oem3 (.text:PINCC26XX_getInputValue)
                  0000c168    00000014     RFCC26XX_singleMode.obj (.text:RF_Params_init)
                  0000c17c    00000014     RFCC26XX_singleMode.obj (.text:RF_dbellSyncOnAck$6)
                  0000c190    00000014     RFCC26XX_singleMode.obj (.text:RF_getCmdOp)
                  0000c1a4    00000014     RFCC26XX_singleMode.obj (.text:RF_ratGetChannel$6)
                  0000c1b8    00000014     drivers_cc26x0r2.aem3 : SPI.oem3 (.text:SPI_Params_init)
                  0000c1cc    00000014                           : PowerCC26XX.oem3 (.text:configureRFCoreClocks)
                  0000c1e0    00000014     flash_interface_ext_rtos.obj (.text:flash_close)
                  0000c1f4    00000014     rtsv7M3_T_le_eabi.lib : strlen.c.obj (.text:strlen)
                  0000c208    00000014     rom_sysbios.aem3 : rom_sysbios.obj (.text:ti_sysbios_family_arm_cc26xx_Timer_getCount64__E)
                  0000c21c    00000014     app_ble_pem3.oem3 (.text:ti_sysbios_heaps_HeapCallback_Object__get__S)
                  0000c230    00000014     app_ble_pem3.oem3 (.text:ti_sysbios_knl_Clock_doTick__I)
                  0000c244    00000012     gattservapp_util.obj (.text:GATTServApp_FindAttr)
                  0000c256    00000012     drivers_cc26x0r2.aem3 : RingBuf.oem3 (.text:RingBuf_construct)
                  0000c268    00000012     dpl_cc26x0r2.aem3 : SemaphoreP_tirtos.oem3 (.text:SemaphoreP_pend)
                  0000c27a    00000012                       : SwiP_tirtos.oem3 (.text:SwiP_inISR)
                  0000c28c    00000012     app_ble_pem3.oem3 (.text:xdc_runtime_Startup_exec__I)
                  0000c29e    00000002     --HOLE-- [fill = 0]
                  0000c2a0    00000010     board_key.obj (.text:Board_setLed0_my)
                  0000c2b0    00000010     board_key.obj (.text:Board_setLed1_my)
                  0000c2c0    00000010     dpl_cc26x0r2.aem3 : ClockP_tirtos.oem3 (.text:ClockP_isActive)
                  0000c2d0    00000010     gattservapp_util.obj (.text:GATTServApp_ReadCharCfg)
                  0000c2e0    00000010     dpl_cc26x0r2.aem3 : HwiP_tirtos.oem3 (.text:HwiP_Params_init)
                  0000c2f0    00000010                       : HwiP_tirtos.oem3 (.text:HwiP_inISR)
                  0000c300    00000010     icall.obj (.text:ICall_taskEntry$8)
                  0000c310    00000010     driverlib.lib : aux_adc.obj (.text:NOROM_AUXADCFlushFifo)
                  0000c320    00000010                   : aux_adc.obj (.text:NOROM_AUXADCReadFifo)
                  0000c330    00000010     drivers_cc26x0r2.aem3 : PINCC26XX.oem3 (.text:PINCC26XX_getPinCount)
                  0000c340    00000010     RFCC26XX_singleMode.obj (.text:RF_dbellSubmitCmdAsync$6)
                  0000c350    00000010     simple_peripheral_oad_offchip.obj (.text:SimplePeripheral_clockHandler$3)
                  0000c360    00000010     simple_peripheral_oad_offchip.obj (.text:SimplePeripheral_processOadWriteCB$3)
                  0000c370    00000010     dpl_cc26x0r2.aem3 : SwiP_tirtos.oem3 (.text:SwiP_Params_init)
                  0000c380    00000010     util.obj (.text:Util_isActive)
                  0000c390    00000010     ExtFlash.obj (.text:extFlashDeselect$13)
                  0000c3a0    00000010     ExtFlash.obj (.text:extFlashSelect$13)
                  0000c3b0    00000010     peripheral_observer.obj (.text:gapRole_setEvent$22)
                  0000c3c0    00000010     hal_assert.obj (.text:halAssertHandlerExt)
                  0000c3d0    00000010     rom_sysbios.aem3 : rom_sysbios.obj (.text:ti_sysbios_family_arm_m3_Hwi_post__E)
                  0000c3e0    00000010                      : rom_sysbios.obj (.text:ti_sysbios_heaps_HeapCallback_alloc__E)
                  0000c3f0    00000010                      : rom_sysbios.obj (.text:ti_sysbios_heaps_HeapCallback_free__E)
                  0000c400    00000010                      : rom_sysbios.obj (.text:ti_sysbios_heaps_HeapCallback_getStats__E)
                  0000c410    00000010                      : rom_sysbios.obj (.text:ti_sysbios_heaps_HeapCallback_isBlocking__E)
                  0000c420    00000010     drivers_cc26x0r2.aem3 : UARTCC26XX.oem3 (.text:uartPostNotify)
                  0000c430    00000010     rom_sysbios.aem3 : rom_sysbios.obj (.text:xdc_runtime_SysCallback_putch__E)
                  0000c440    00000010                      : rom_sysbios.obj (.text:xdc_runtime_SysCallback_ready__E)
                  0000c450    00000010                      : rom_sysbios.obj (.text:xdc_runtime_System_vsnprintf__E)
                  0000c460    0000000e     icall.obj (.text:ICall_abort)
                  0000c46e    0000000e     icall.obj (.text:ICall_signal)
                  0000c47c    0000000e     driverlib.lib : uart.obj (.text:NOROM_UARTCharGetNonBlocking)
                  0000c48a    0000000e                   : uart.obj (.text:NOROM_UARTCharPutNonBlocking)
                  0000c498    0000000e     RFCC26XX_singleMode.obj (.text:RF_cancelCmd)
                  0000c4a6    0000000e     drivers_cc26x0r2.aem3 : SPICC26XXDMA.oem3 (.text:SPICC26XXDMA_init)
                  0000c4b4    0000000e     rtsv7M3_T_le_eabi.lib : copy_decompress_none.c.obj (.text:decompress:none:__TI_decompress_none)
                  0000c4c2    0000000e     rom_sysbios.aem3 : rom_sysbios.obj (.text:ti_sysbios_family_arm_cc26xx_TimestampProvider_get32__E)
                  0000c4d0    0000000c     display.aem3 : Display.oem3 (.text:Display_doClose)
                  0000c4dc    0000000c     icall.obj (.text:ICall_clockFunc$8)
                  0000c4e8    0000000c     driverlib.lib : cpu.obj (.text:NOROM_CPUcpsid)
                  0000c4f4    0000000c                   : cpu.obj (.text:NOROM_CPUcpsie)
                  0000c500    0000000c                   : osc.obj (.text:NOROM_OSC_HPOSCRelativeFrequencyOffsetToRFCoreFormatConvert)
                  0000c50c    0000000c                   : ssi.obj (.text:NOROM_SSIDataGet)
                  0000c518    0000000c     drivers_cc26x0r2.aem3 : PINCC26XX.oem3 (.text:PIN_registerIntCb)
                  0000c524    0000000c                           : PowerCC26XX.oem3 (.text:Power_getConstraintMask)
                  0000c530    0000000c                           : PowerCC26XX.oem3 (.text:Power_getDependencyCount)
                  0000c53c    0000000c     RFCC26XX_singleMode.obj (.text:RF_powerConstraintGet)
                  0000c548    0000000c     dpl_cc26x0r2.aem3 : SemaphoreP_tirtos.oem3 (.text:SemaphoreP_delete)
                  0000c554    0000000c     rtsv7M3_T_le_eabi.lib : _lock.c.obj (.text:_register_lock)
                  0000c560    0000000c                           : _lock.c.obj (.text:_register_unlock)
                  0000c56c    0000000c                           : copy_zero_init.c.obj (.text:decompress:ZI:__TI_zero_init)
                  0000c578    0000000c     icall.obj (.text:matchLiteCS$8)
                  0000c584    0000000c     icall.obj (.text:osalHeapGetStatsFxn)
                  0000c590    0000000c     icall.obj (.text:osalHeapInitFxn)
                  0000c59c    0000000c     drivers_cc26x0r2.aem3 : SPICC26XXDMA.oem3 (.text:spiPostNotify)
                  0000c5a8    0000000c     rom_sysbios.aem3 : rom_sysbios.obj (.text:ti_sysbios_BIOS_getThreadType__E)
                  0000c5b4    0000000c                      : rom_sysbios.obj (.text:ti_sysbios_knl_Swi_getTrigger__E)
                  0000c5c0    0000000c     app_ble_pem3.oem3 (.text:xdc_runtime_Startup_reset__I)
                  0000c5cc    0000000a     drivers_cc26x0r2.aem3 : ADC.oem3 (.text:ADC_Params_init)
                  0000c5d6    0000000a                           : ADC.oem3 (.text:ADC_close)
                  0000c5e0    0000000a                           : ADC.oem3 (.text:ADC_convert)
                  0000c5ea    0000000a                           : ADC.oem3 (.text:ADC_convertToMicroVolts)
                  0000c5f4    0000000a     dpl_cc26x0r2.aem3 : ClockP_tirtos.oem3 (.text:ClockP_Params_init)
                  0000c5fe    0000000a     icall.obj (.text:ICall_stopTimer)
                  0000c608    0000000a     driverlib.lib : ssi.obj (.text:NOROM_SSIDataPut)
                  0000c612    0000000a     RFCC26XX_singleMode.obj (.text:RF_flushCmd)
                  0000c61c    0000000a     drivers_cc26x0r2.aem3 : SPI.oem3 (.text:SPI_close)
                  0000c626    0000000a                           : SPI.oem3 (.text:SPI_transfer)
                  0000c630    0000000a     simple_peripheral_oad_offchip.obj (.text:SimplePeripheral_charValueChangeCB$3)
                  0000c63a    0000000a     simple_peripheral_oad_offchip.obj (.text:SimplePeripheral_keyChangeHandler$3)
                  0000c644    0000000a     simple_peripheral_oad_offchip.obj (.text:SimplePeripheral_stateChangeCB$3)
                  0000c64e    0000000a     drivers_cc26x0r2.aem3 : UART.oem3 (.text:UART_close)
                  0000c658    0000000a                           : UART.oem3 (.text:UART_control)
                  0000c662    0000000a                           : UART.oem3 (.text:UART_write)
                  0000c66c    0000000a                           : UDMACC26XX.oem3 (.text:UDMACC26XX_hwiIntFxn)
                  0000c676    0000000a     rom_sysbios.aem3 : rom_sysbios.obj (.text:ti_sysbios_family_arm_cc26xx_Timer_getFreq__E)
                  0000c680    00000008     drivers_cc26x0r2.aem3 : ADCCC26XX.oem3 (.text:ADCCC26XX_init)
                  0000c688    00000008                           : CryptoCC26XX.oem3 (.text:CryptoCC26XX_Params_init)
                  0000c690    00000008                           : SPICC26XXDMA.oem3 (.text:SPICC26XXDMA_transferCallback)
                  0000c698    00000008                           : CryptoCC26XX.oem3 (.text:cryptoPostNotify)
                  0000c6a0    00000008     simple_peripheral_oad_offchip.obj (.text:min$3)
                  0000c6a8    00000008     drivers_cc26x0r2.aem3 : UARTCC26XX.oem3 (.text:readSemCallback)
                  0000c6b0    00000008                           : UARTCC26XX.oem3 (.text:writeSemCallback)
                  0000c6b8    00000008     app_ble_pem3.oem3 (.text:xdc_runtime_Text_visitRope__I)
                  0000c6c0    00000006     drivers_cc26x0r2.aem3 : ADCCC26XX.oem3 (.text:ADCCC26XX_control)
                  0000c6c6    00000006                           : CryptoCC26XX.oem3 (.text:CryptoCC26XX_transact)
                  0000c6cc    00000006                           : CryptoCC26XX.oem3 (.text:CryptoCC26XX_transactPolling)
                  0000c6d2    00000006     display.aem3 : DisplayUart.oem3 (.text:DisplayUartAnsi_control)
                  0000c6d8    00000006                  : DisplayUart.oem3 (.text:DisplayUartAnsi_getType)
                  0000c6de    00000006     icall.obj (.text:ICall_freeMsg)
                  0000c6e4    00000006     driverlib.lib : cpu.obj (.text:NOROM_CPUdelay)
                  0000c6ea    00000006     RFCC26XX_singleMode.obj (.text:RF_runDirectCmd)
                  0000c6f0    00000006     RFCC26XX_singleMode.obj (.text:RF_runImmediateCmd)
                  0000c6f6    00000006     drivers_cc26x0r2.aem3 : UARTCC26XX.oem3 (.text:UARTCC26XX_readPolling)
                  0000c6fc    00000006                           : UARTCC26XX.oem3 (.text:UARTCC26XX_writePolling)
                  0000c702    00000006     icall.obj (.text:osalHeapAllocFxn)
                  0000c708    00000006     icall.obj (.text:osalHeapFreeFxn)
                  0000c70e    00000006     icall_api_lite.obj (.text:rfErrCb)
                  0000c714    00000006     rom_sysbios.aem3 : rom_sysbios.obj (.text:ti_sysbios_family_arm_m3_Hwi_setFunc__E)
                  0000c71a    00000004     dpl_cc26x0r2.aem3 : PowerCC26XX_tirtos.oem3 (.text:CPUwfi)
                  0000c71e    00000004                       : ClockP_tirtos.oem3 (.text:ClockP_destruct)
                  0000c722    00000004                       : ClockP_tirtos.oem3 (.text:ClockP_getCpuFreq)
                  0000c726    00000004                       : ClockP_tirtos.oem3 (.text:ClockP_getTimeout)
                  0000c72a    00000004                       : ClockP_tirtos.oem3 (.text:ClockP_setTimeout)
                  0000c72e    00000004                       : ClockP_tirtos.oem3 (.text:ClockP_start)
                  0000c732    00000004                       : ClockP_tirtos.oem3 (.text:ClockP_stop)
                  0000c736    00000004                       : HwiP_tirtos.oem3 (.text:HwiP_clearInterrupt)
                  0000c73a    00000004                       : HwiP_tirtos.oem3 (.text:HwiP_destruct)
                  0000c73e    00000004                       : HwiP_tirtos.oem3 (.text:HwiP_disable)
                  0000c742    00000004                       : HwiP_tirtos.oem3 (.text:HwiP_enableInterrupt)
                  0000c746    00000004                       : HwiP_tirtos.oem3 (.text:HwiP_post)
                  0000c74a    00000004                       : HwiP_tirtos.oem3 (.text:HwiP_setFunc)
                  0000c74e    00000004                       : HwiP_tirtos.oem3 (.text:HwiP_setPriority)
                  0000c752    00000004     icall.obj (.text:ICall_malloc)
                  0000c756    00000004     drivers_cc26x0r2.aem3 : PowerCC26XX.oem3 (.text:PowerCC26XX_switchXOSC_HF)
                  0000c75a    00000004     dpl_cc26x0r2.aem3 : SemaphoreP_tirtos.oem3 (.text:SemaphoreP_destruct)
                  0000c75e    00000004                       : SemaphoreP_tirtos.oem3 (.text:SemaphoreP_post)
                  0000c762    00000004                       : SwiP_tirtos.oem3 (.text:SwiP_destruct)
                  0000c766    00000004                       : SwiP_tirtos.oem3 (.text:SwiP_disable)
                  0000c76a    00000004                       : SwiP_tirtos.oem3 (.text:SwiP_getTrigger)
                  0000c76e    00000004                       : SwiP_tirtos.oem3 (.text:SwiP_or)
                  0000c772    00000004                       : SwiP_tirtos.oem3 (.text:SwiP_post)
                  0000c776    00000004                       : SwiP_tirtos.oem3 (.text:SwiP_setPriority)
                  0000c77a    00000004                       : SystemP_tirtos.oem3 (.text:SystemP_vsnprintf)
                  0000c77e    00000004     util.obj (.text:Util_startClock)
                  0000c782    00000004     util.obj (.text:Util_stopClock)
                  0000c786    00000004     rtsv7M3_T_le_eabi.lib : exit.c.obj (.text:abort:abort)
                  0000c78a    00000004     drivers_cc26x0r2.aem3 : PowerCC26XX.oem3 (.text:nopResourceHandler)
                  0000c78e    00000004     icall.obj (.text:osalHeapIsBlockingFxn)
                  0000c792    00000004     rom_sysbios.aem3 : rom_sysbios.obj (.text:ti_sysbios_heaps_HeapCallback_defaultCreate)
                  0000c796    00000004                      : rom_sysbios_config.obj (.text:ti_sysbios_knl_Clock_TimerProxy_getFreq__E)
                  0000c79a    00000004                      : rom_sysbios.obj (.text:ti_sysbios_knl_Clock_isActive__E)
                  0000c79e    00000004                      : rom_sysbios.obj (.text:ti_sysbios_knl_Clock_setPeriod__E)
                  0000c7a2    00000004                      : rom_sysbios.obj (.text:xdc_runtime_SysCallback_defaultReady)
                  0000c7a6    00000002     --HOLE-- [fill = 0]
                  0000c7a8    00000008     (.tramp.ti_sysbios_knl_Swi_destruct.1)
                  0000c7b0    00000008     (.tramp.ti_sysbios_knl_Semaphore_destruct.1)
                  0000c7b8    00000008     (.tramp.ti_sysbios_family_arm_m3_Hwi_setPriority__E.1)
                  0000c7c0    00000008     (.tramp.ti_sysbios_family_arm_m3_Hwi_enableInterrupt__E.1)
                  0000c7c8    00000008     (.tramp.ti_sysbios_family_arm_m3_Hwi_destruct.1)
                  0000c7d0    00000008     (.tramp.ti_sysbios_BIOS_getCpuFreq__E.1)
                  0000c7d8    00000008     (.tramp.ti_sysbios_knl_Clock_destruct.1)
                  0000c7e0    00000008     (.tramp.ti_sysbios_knl_Semaphore_delete.1)
                  0000c7e8    00000008     (.tramp.xdc_runtime_Startup_startMods__I.1)
                  0000c7f0    00000008     (.tramp.ti_sysbios_knl_Clock_logTick__E.1)
                  0000c7f8    00000008     (.tramp.ti_sysbios_knl_Swi_post__E.1)
                  0000c800    00000008     (.tramp.ti_sysbios_BIOS_RtsGateProxy_leave__E.1)
                  0000c808    00000008     (.tramp.xdc_runtime_Memory_free__E.1)
                  0000c810    00000008     (.tramp.ti_sysbios_knl_Task_sleep__E.1)
                  0000c818    00000008     (.tramp.ti_sysbios_knl_Swi_construct.1)
                  0000c820    00000008     (.tramp.ti_sysbios_BIOS_RtsGateProxy_enter__E.1)
                  0000c828    00000008     (.tramp.ti_sysbios_family_arm_m3_Hwi_initNVIC__E.1)
                  0000c830    00000008     (.tramp.ti_sysbios_knl_Semaphore_construct.1)
                  0000c838    00000008     (.tramp.xdc_runtime_Memory_alloc__E.1)
                  0000c840    00000008     (.tramp.xdc_runtime_Core_createObject__I.1)
                  0000c848    00000008     (.tramp.ti_sysbios_knl_Task_startup__E.1)
                  0000c850    00000008     (.tramp.ti_sysbios_knl_Swi_startup__E.1)
                  0000c858    00000008     (.tramp.ti_sysbios_hal_Hwi_startup__E.1)
                  0000c860    00000008     (.tramp.ti_sysbios_family_arm_cc26xx_Timer_startup__E.1)
                  0000c868    00000008     (.tramp.xdc_runtime_System_atexit__E.1)
                  0000c870    00000008     (.tramp.ti_sysbios_BIOS_linkedWithIncorrectBootLibrary__E.1)
                  0000c878    00000008     (.tramp.ti_sysbios_BIOS_setThreadType__E.1)
                  0000c880    00000008     (.tramp.ti_sysbios_knl_Swi_disable__E.1)
                  0000c888    00000008     (.tramp.ti_sysbios_knl_Queue_Object__get__S.1)
                  0000c890    00000008     (.tramp.ti_sysbios_family_arm_m3_Hwi_construct.1)
                  0000c898    00000008     (.tramp.ti_sysbios_knl_Swi_Params__init__S.1)
                  0000c8a0    00000008     (.tramp.ti_sysbios_family_arm_m3_Hwi_Params__init__S.1)
                  0000c8a8    00000008     (.tramp.xdc_runtime_Startup_rtsDone__E.1)
                  0000c8b0    00000008     (.tramp.ti_sysbios_knl_Task_construct.1)
                  0000c8b8    00000008     (.tramp.ti_sysbios_knl_Semaphore_create.1)
                  0000c8c0    00000008     (.tramp.ti_sysbios_knl_Semaphore_Params__init__S.1)
                  0000c8c8    00000008     (.tramp.xdc_runtime_System_exit__E.1)
                  0000c8d0    00000008     (.tramp.ti_sysbios_knl_Event_create.1)
                  0000c8d8    00000008     (.tramp.ti_sysbios_knl_Queue_put__E.1)
                  0000c8e0    00000008     (.tramp.ti_sysbios_knl_Clock_construct.1)
                  0000c8e8    00000008     (.tramp.ti_sysbios_knl_Task_restore__E.1)
                  0000c8f0    00000008     (.tramp.ti_sysbios_knl_Task_create.1)
                  0000c8f8    00000008     (.tramp.ti_sysbios_knl_Task_Params__init__S.1)
                  0000c900    00000008     (.tramp.ti_sysbios_knl_Task_disable__E.1)
                  0000c908    00000008     (.tramp.ti_sysbios_knl_Clock_TimerProxy_getPeriod__E.1)
                  0000c910    00000008     (.tramp.ti_sysbios_knl_Clock_getTimerHandle__E.1)
                  0000c918    00000008     (.tramp.ti_sysbios_knl_Clock_create.1)
                  0000c920    00000008     (.tramp.ti_sysbios_knl_Clock_Params__init__S.1)
                  0000c928    00000008     (.tramp.ti_sysbios_knl_Clock_scheduleNextTick__E.1)
                  0000c930    00000008     (.tramp.ti_sysbios_knl_Clock_walkQueueDynamic__E.1)
                  0000c938    00000008     (.tramp.ti_sysbios_knl_Clock_TimerProxy_getCurrentTick__E.1)
                  0000c940    00000008     (.tramp.ti_sysbios_family_arm_m3_Hwi_disableFxn__E.1)
                  0000c948    00000008     (.tramp.ti_sysbios_BIOS_start__E.1)
                  0000c950    00000008     common_r2.symbols (.tramp.eccRom_genKeys.1)
                  0000c958    00000008     (.tramp.ti_sysbios_knl_Event_post__E.1)
                  0000c960    00000008     (.tramp.ti_sysbios_knl_Clock_getTicks__E.1)
                  0000c968    00000008     (.tramp.ti_sysbios_knl_Task_self__E.1)
                  0000c970    00000008     common_r2.symbols (.tramp.eccRom_genSharedSecret.1)
                  0000c978    00000008     (.tramp.ti_sysbios_knl_Semaphore_post__E.1)
                  0000c980    00000008     (.tramp.ti_sysbios_knl_Semaphore_pend__E.1)
                  0000c988    00000008     (.tramp.ti_sysbios_knl_Swi_restore__E.1)
                  0000c990    00000008     (.tramp.ti_sysbios_family_arm_m3_Hwi_restoreFxn__E.1)
                  0000c998    00000008     (.tramp.ti_sysbios_knl_Clock_start__E.1)
                  0000c9a0    00000008     (.tramp.ti_sysbios_knl_Clock_setTimeout__E.1)
                  0000c9a8    00000008     (.tramp.ti_sysbios_knl_Clock_stop__E.1)
                  0000c9b0    00000008     (.tramp.ti_sysbios_knl_Queue_construct.1)

.const     0    0000c9b8    00000938     
                  0000c9b8    00000084     CC2640R2_LAUNCHXL.obj (.const:ADC_config)
                  0000ca3c    00000078     oad.obj (.const:$O16$$)
                  0000cab4    00000072     <whole-program> (.const:.string)
                  0000cb26    00000002     devinfoservice.obj (.const:.string:devInfo11073CertUUID)
                  0000cb28    0000006c     ble_user_config.obj (.const:rfDriverTableBLE)
                  0000cb94    0000004d     CC2640R2_LAUNCHXL.obj (.const:adcCC26xxHWAttrs)
                  0000cbe1    00000002     devinfoservice.obj (.const:.string:devInfoFirmwareRevUUID)
                  0000cbe3    00000001     display.aem3 : Display.oem3 (.const:Display_defaultParams)
                  0000cbe4    0000004c     myDataTransfer.obj (.const:$O20$$)
                  0000cc30    0000004c     drivers_cc26x0r2.aem3 : PowerCC26XX.oem3 (.const:resourceDB)
                  0000cc7c    00000048     app_ble_pem3.oem3 (.const:.string)
                  0000ccc4    00000048     icall_user_config.obj (.const:icallServiceTable)
                  0000cd0c    00000044     drivers_cc26x0r2.aem3 : UARTCC26XX.oem3 (.const:$O1$$)
                  0000cd50    00000044     CC2640R2_LAUNCHXL.obj (.const:$O23$$)
                  0000cd94    00000040     ECCROMCC26XX.obj (.const:$O7$$)
                  0000cdd4    00000040     CC2640R2_LAUNCHXL.obj (.const:spiCC26XXDMAHWAttrs)
                  0000ce14    00000038     drivers_cc26x0r2.aem3 : SPICC26XXDMA.oem3 (.const:$O1$$)
                  0000ce4c    0000002c     gatt_uuid.obj (.const:$O18$$)
                  0000ce78    0000002c     ble_user_config.obj (.const:cryptoDriverTableBLE)
                  0000cea4    0000002c     app_ble_pem3.oem3 (.const:xdc_runtime_Startup_sfxnTab__A)
                  0000ced0    00000028     drivers_cc26x0r2.aem3 : UARTCC26XX.oem3 (.const:UARTCC26XX_fxnTable)
                  0000cef8    00000028     app_ble_pem3.oem3 (.const:ti_sysbios_heaps_HeapCallback_Module__FXNS__C)
                  0000cf20    00000028     CC2640R2_LAUNCHXL.obj (.const:uartCC26XXHWAttrs)
                  0000cf48    00000027     ble_user_config.obj (.const:TxPowerTable)
                  0000cf6f    00000001     app_ble_pem3.oem3 (.const:xdc_runtime_Text_charTab__A)
                  0000cf70    00000024     drivers_cc26x0r2.aem3 : UART.oem3 (.const:UART_defaultParams)
                  0000cf94    00000024     ble_user_config.obj (.const:bleStackConfig)
                  0000cfb8    00000020     display.aem3 : DisplayUart.oem3 (.const:DisplayUartAnsi_fxnTable)
                  0000cfd8    00000020     drivers_cc26x0r2.aem3 : SPI.oem3 (.const:SPI_defaultParams)
                  0000cff8    00000020     app_ble_pem3.oem3 (.const:ti_sysbios_heaps_HeapCallback_Object__DESC__C)
                  0000d018    0000001c     CC2640R2_LAUNCHXL_fxns.obj (.const:$O24$$)
                  0000d034    0000001c     RFCC26XX_singleMode.obj (.const:RF_defaultParams$6)
                  0000d050    0000001c     app_ble_pem3.oem3 (.const:ti_sysbios_heaps_HeapCallback_Object__PARAMS__C)
                  0000d06c    00000018     icall.obj (.const:$O10$$)
                  0000d084    00000018     simple_peripheral_oad_offchip.obj (.const:$O5$$)
                  0000d09c    00000018     drivers_cc26x0r2.aem3 : ADCCC26XX.oem3 (.const:ADCCC26XX_fxnTable)
                  0000d0b4    00000018     CC2640R2_LAUNCHXL.obj (.const:PowerCC26XX_config)
                  0000d0cc    00000018     drivers_cc26x0r2.aem3 : SPICC26XXDMA.oem3 (.const:SPICC26XXDMA_fxnTable)
                  0000d0e4    00000018     CC2640R2_LAUNCHXL.obj (.const:SPI_config)
                  0000d0fc    00000018     ble_user_config.obj (.const:driverTable)
                  0000d114    00000016     app_ble_pem3.oem3 (.const:xdc_runtime_Startup_sfxnRts__A)
                  0000d12a    00000015     oad.obj (.const:.string:oadExtCtrlDesc$16)
                  0000d13f    00000001     --HOLE-- [fill = 0]
                  0000d140    00000014     CC2640R2_LAUNCHXL.obj (.const:displayUartHWAttrs)
                  0000d154    00000011     util.obj (.const:.string:$P$T0$2$4)
                  0000d165    00000002     devinfoservice.obj (.const:.string:devInfoHardwareRevUUID)
                  0000d167    00000001     --HOLE-- [fill = 0]
                  0000d168    00000010     bim_util.obj (.const:$O1$$)
                  0000d178    00000010     main.obj (.const:$P$T0$1$28)
                  0000d188    00000010     myDataTransfer.obj (.const:.string:myDataTransferUUID)
                  0000d198    00000010     oad.obj (.const:.string:oadServUUID$16)
                  0000d1a8    00000010     CC2640R2_LAUNCHXL.obj (.const:cryptoCC26XXHWAttrs)
                  0000d1b8    00000010     icall_user_config.obj (.const:eccDriverTable)
                  0000d1c8    0000000d     oad.obj (.const:.string:oadImgIdentifyDesc$16)
                  0000d1d5    00000002     devinfoservice.obj (.const:.string:devInfoMfrNameUUID)
                  0000d1d7    00000001     --HOLE-- [fill = 0]
                  0000d1d8    0000000c     CC2640R2_LAUNCHXL.obj (.const:Display_config)
                  0000d1e4    0000000c     CC2640R2_LAUNCHXL.obj (.const:UART_config)
                  0000d1f0    0000000c     ble_user_config.obj (.const:boardConfig)
                  0000d1fc    0000000c     devinfoservice.obj (.const:devInfoCBs)
                  0000d208    0000000c     icall_user_config.obj (.const:trngDriverTable)
                  0000d214    0000000c     app_ble_pem3.oem3 (.const:xdc_runtime_Startup_firstFxns__A)
                  0000d220    0000000a     oad.obj (.const:.string:oadImgBlockDesc$16)
                  0000d22a    0000000a     CC2640R2_LAUNCHXL.obj (.const)
                  0000d234    00000008     ExtFlash.obj (.const:$O14$$)
                  0000d23c    00000008     drivers_cc26x0r2.aem3 : ADC.oem3 (.const:ADC_defaultParams)
                  0000d244    00000008     CC2640R2_LAUNCHXL.obj (.const:CryptoCC26XX_config)
                  0000d24c    00000008     CC2640R2_LAUNCHXL.obj (.const:PINCC26XX_hwAttrs)
                  0000d254    00000008     CC2640R2_LAUNCHXL.obj (.const:UDMACC26XX_config)
                  0000d25c    00000008     devinfoservice.obj (.const:devInfoService$18)
                  0000d264    00000008     myDataTransfer.obj (.const:myDataTransferDecl$21)
                  0000d26c    00000008     oad.obj (.const:oadService$16)
                  0000d274    00000008     ble_user_config.obj (.const:rtosApiTable)
                  0000d27c    00000008     CC2640R2_LAUNCHXL.obj (.const:udmaHWAttrs)
                  0000d284    00000007     display.aem3 : DisplayUart.oem3 (.const:.string:$P$T0$1)
                  0000d28b    00000006     ble_user_config.obj (.const:appTxPwrTbl)
                  0000d291    00000002     devinfoservice.obj (.const:.string:devInfoModelNumberUUID)
                  0000d293    00000001     --HOLE-- [fill = 0]
                  0000d294    00000004     CC2640R2_LAUNCHXL.obj (.const:TRNGCC26XXHWAttrs)
                  0000d298    00000004     app_ble_pem3.oem3 (.const:ti_sysbios_family_arm_cc26xx_Timer_funcHookCH1__C)
                  0000d29c    00000004     app_ble_pem3.oem3 (.const:ti_sysbios_family_arm_cc26xx_Timer_funcHookCH2__C)
                  0000d2a0    00000004     app_ble_pem3.oem3 (.const:ti_sysbios_family_arm_m3_Hwi_swiDisable__C)
                  0000d2a4    00000004     app_ble_pem3.oem3 (.const:ti_sysbios_family_arm_m3_Hwi_swiRestoreHwi__C)
                  0000d2a8    00000004     app_ble_pem3.oem3 (.const:ti_sysbios_hal_SecondsClock_Module_State_clock__O)
                  0000d2ac    00000004     app_ble_pem3.oem3 (.const:ti_sysbios_heaps_HeapCallback_Object__count__C)
                  0000d2b0    00000004     app_ble_pem3.oem3 (.const:ti_sysbios_heaps_HeapCallback_allocInstFxn__C)
                  0000d2b4    00000004     app_ble_pem3.oem3 (.const:ti_sysbios_heaps_HeapCallback_createInstFxn__C)
                  0000d2b8    00000004     app_ble_pem3.oem3 (.const:ti_sysbios_heaps_HeapCallback_freeInstFxn__C)
                  0000d2bc    00000004     app_ble_pem3.oem3 (.const:ti_sysbios_heaps_HeapCallback_getStatsInstFxn__C)
                  0000d2c0    00000004     app_ble_pem3.oem3 (.const:ti_sysbios_heaps_HeapCallback_initInstFxn__C)
                  0000d2c4    00000004     app_ble_pem3.oem3 (.const:ti_sysbios_heaps_HeapCallback_isBlockingInstFxn__C)
                  0000d2c8    00000004     app_ble_pem3.oem3 (.const:ti_sysbios_knl_Clock_tickPeriod__C)
                  0000d2cc    00000004     app_ble_pem3.oem3 (.const:ti_sysbios_knl_Idle_funcList__A)
                  0000d2d0    00000004     app_ble_pem3.oem3 (.const:xdc_runtime_SysCallback_putchFxn__C)
                  0000d2d4    00000004     app_ble_pem3.oem3 (.const:xdc_runtime_SysCallback_readyFxn__C)
                  0000d2d8    00000004     app_ble_pem3.oem3 (.const:xdc_runtime_System_extendFxn__C)
                  0000d2dc    00000004     app_ble_pem3.oem3 (.const:xdc_runtime_Text_visitRopeFxn__C)
                  0000d2e0    00000002     devinfoservice.obj (.const:.string:devInfoPnpIdUUID)
                  0000d2e2    00000002     devinfoservice.obj (.const:.string:devInfoSerialNumberUUID)
                  0000d2e4    00000002     devinfoservice.obj (.const:.string:devInfoServUUID)
                  0000d2e6    00000002     devinfoservice.obj (.const:.string:devInfoSoftwareRevUUID)
                  0000d2e8    00000002     devinfoservice.obj (.const:.string:devInfoSystemIdUUID)
                  0000d2ea    00000002     app_ble_pem3.oem3 (.const:ti_sysbios_knl_Clock_Module__id__C)
                  0000d2ec    00000002     app_ble_pem3.oem3 (.const:xdc_runtime_Text_registryModsLastId__C)
                  0000d2ee    00000002     app_ble_pem3.oem3 (.const:xdc_runtime_Text_unnamedModsLastId__C)

.data:ti_sysbios_knl_Task_Module__state__V 
*          0    20000100    00000044     UNINITIALIZED
                  20000100    00000044     app_ble_pem3.oem3 (.data:ti_sysbios_knl_Task_Module__state__V)

.data:ti_sysbios_family_arm_m3_Hwi_Module__state__V 
*          0    20000144    00000034     UNINITIALIZED
                  20000144    00000034     app_ble_pem3.oem3 (.data:ti_sysbios_family_arm_m3_Hwi_Module__state__V)

.data:ti_sysbios_knl_Clock_Module__state__V 
*          0    20000178    0000002c     UNINITIALIZED
                  20000178    0000002c     app_ble_pem3.oem3 (.data:ti_sysbios_knl_Clock_Module__state__V)

.data:ti_sysbios_BIOS_Module__state__V 
*          0    200001a4    00000024     UNINITIALIZED
                  200001a4    00000024     app_ble_pem3.oem3 (.data:ti_sysbios_BIOS_Module__state__V)

.data:ti_sysbios_knl_Swi_Module__state__V 
*          0    200001c8    0000001c     UNINITIALIZED
                  200001c8    0000001c     app_ble_pem3.oem3 (.data:ti_sysbios_knl_Swi_Module__state__V)

.data:ti_sysbios_family_arm_cc26xx_Timer_Module__state__V 
*          0    200001e4    00000008     UNINITIALIZED
                  200001e4    00000008     app_ble_pem3.oem3 (.data:ti_sysbios_family_arm_cc26xx_Timer_Module__state__V)

.data:ti_sysbios_family_arm_cc26xx_TimestampProvider_Module__state__V 
*          0    200001ec    00000004     UNINITIALIZED
                  200001ec    00000004     app_ble_pem3.oem3 (.data:ti_sysbios_family_arm_cc26xx_TimestampProvider_Module__state__V)

.data:xdc_runtime_Startup_Module__state__V 
*          0    200001f0    00000008     UNINITIALIZED
                  200001f0    00000008     app_ble_pem3.oem3 (.data:xdc_runtime_Startup_Module__state__V)

.data:xdc_runtime_System_Module__state__V 
*          0    200001f8    00000008     UNINITIALIZED
                  200001f8    00000008     app_ble_pem3.oem3 (.data:xdc_runtime_System_Module__state__V)

.data:xdc_runtime_Memory_Module__state__V 
*          0    20000200    00000004     UNINITIALIZED
                  20000200    00000004     app_ble_pem3.oem3 (.data:xdc_runtime_Memory_Module__state__V)

.data:xdc_runtime_Error_Module__state__V 
*          0    20000204    00000002     UNINITIALIZED
                  20000204    00000002     app_ble_pem3.oem3 (.data:xdc_runtime_Error_Module__state__V)

.bootVecs 
*          0    00000000    00000008     DSECT
                  00000000    00000008     boot.aem3 : boot.oem3 (.bootVecs)

.resetVecs 
*          0    000000a8    0000003c     
                  000000a8    0000003c     app_ble_pem3.oem3 (.resetVecs)

.vecs      0    20000000    000000c8     NOLOAD SECTION
                  20000000    000000c8     app_ble_pem3.oem3 (.vecs)

xdc.meta   0    00000000    000000dd     COPY SECTION
                  00000000    000000dd     app_ble_pem3.oem3 (xdc.meta)

xdc.noload 
*          0    00000000    00000000     COPY SECTION

.img_hdr   0    00000000    000000a5     
                  00000000    000000a5     oad_image_header_app.obj (.img_hdr:retain)

.resetVecs 
*          0    000000a8    00000000     UNINITIALIZED

.intvecs   0    000000a8    00000000     UNINITIALIZED

EntrySection 
*          0    000000a8    00000000     UNINITIALIZED

.cinit     0    0000d348    000005dc     
                  0000d348    00000451     (.cinit..data.load) [load image, compression = lzss]
                  0000d799    00000029     (.cinit..data:ti_sysbios_family_arm_m3_Hwi_Module__state__V.load) [load image, compression = lzss]
                  0000d7c2    00000021     (.cinit..data:ti_sysbios_knl_Task_Module__state__V.load) [load image, compression = lzss]
                  0000d7e3    0000001f     (.cinit..data:ti_sysbios_BIOS_Module__state__V.load) [load image, compression = lzss]
                  0000d802    0000001f     (.cinit..data:ti_sysbios_knl_Clock_Module__state__V.load) [load image, compression = lzss]
                  0000d821    00000010     (.cinit..data:ti_sysbios_knl_Swi_Module__state__V.load) [load image, compression = lzss]
                  0000d831    00000003     --HOLE-- [fill = 0]
                  0000d834    0000000c     (__TI_handler_table)
                  0000d840    0000000b     (.cinit..data:ti_sysbios_family_arm_cc26xx_Timer_Module__state__V.load) [load image, compression = lzss]
                  0000d84b    00000005     --HOLE-- [fill = 0]
                  0000d850    00000008     (.cinit..TI.bound:dmaSpi0RxControlTableEntry.load) [load image, compression = zero_init]
                  0000d858    00000008     (.cinit..TI.bound:dmaSpi0TxControlTableEntry.load) [load image, compression = zero_init]
                  0000d860    00000008     (.cinit..TI.bound:dmaSpi1RxControlTableEntry.load) [load image, compression = zero_init]
                  0000d868    00000008     (.cinit..TI.bound:dmaSpi1TxControlTableEntry.load) [load image, compression = zero_init]
                  0000d870    00000008     (.cinit..bss.load) [load image, compression = zero_init]
                  0000d878    00000008     (.cinit..data:xdc_runtime_Memory_Module__state__V.load) [load image, compression = lzss]
                  0000d880    00000007     (.cinit..data:ti_sysbios_family_arm_cc26xx_TimestampProvider_Module__state__V.load) [load image, compression = lzss]
                  0000d887    00000007     (.cinit..data:xdc_runtime_Startup_Module__state__V.load) [load image, compression = lzss]
                  0000d88e    00000007     (.cinit..data:xdc_runtime_System_Module__state__V.load) [load image, compression = lzss]
                  0000d895    00000006     (.cinit..data:xdc_runtime_Error_Module__state__V.load) [load image, compression = lzss]
                  0000d89b    00000001     --HOLE-- [fill = 0]
                  0000d89c    00000088     (__TI_cinit_table)

.TI.bound:dmaSpi0RxControlTableEntry 
*          0    20000430    00000010     UNINITIALIZED
                  20000430    00000010     drivers_cc26x0r2.aem3 : SPICC26XXDMA.oem3 (.TI.bound:dmaSpi0RxControlTableEntry)

.TI.bound:dmaSpi0TxControlTableEntry 
*          0    20000440    00000010     UNINITIALIZED
                  20000440    00000010     drivers_cc26x0r2.aem3 : SPICC26XXDMA.oem3 (.TI.bound:dmaSpi0TxControlTableEntry)

.TI.bound:dmaSpi1RxControlTableEntry 
*          0    20000500    00000010     UNINITIALIZED
                  20000500    00000010     drivers_cc26x0r2.aem3 : SPICC26XXDMA.oem3 (.TI.bound:dmaSpi1RxControlTableEntry)

.TI.bound:dmaSpi1TxControlTableEntry 
*          0    20000510    00000010     UNINITIALIZED
                  20000510    00000010     drivers_cc26x0r2.aem3 : SPICC26XXDMA.oem3 (.TI.bound:dmaSpi1TxControlTableEntry)

.data      0    20000520    0000168f     UNINITIALIZED
                  20000520    00000638     simple_peripheral_oad_offchip.obj (.data:$O4$$)
                  20000b58    00000348     peripheral_observer.obj (.data:$O21$$)
                  20000ea0    000001ec     oad.obj (.data:$O15$$)
                  2000108c    000001d4     devinfoservice.obj (.data:$O17$$)
                  20001260    00000118     myDataTransfer.obj (.data:$O19$$)
                  20001378    00000114     drivers_cc26x0r2.aem3 : PINCC26XX.oem3 (.data:$O1$$)
                  2000148c    00000114                           : PowerCC26XX.oem3 (.data:PowerCC26XX_module)
                  200015a0    000000bc     myBlink.obj (.data:$O3$$)
                  2000165c    000000b8     board_key.obj (.data:$O1$$)
                  20001714    0000009c     icall.obj (.data:$O9$$)
                  200017b0    0000006c     ExtFlash.obj (.data:$O13$$)
                  2000181c    0000004c     app_ble_pem3.oem3 (.data:ti_sysbios_knl_Task_Object__table__V)
                  20001868    00000048     app_ble_pem3.oem3 (.data:ti_sysbios_family_arm_cc26xx_Timer_Object__table__V)
                  200018b0    0000003c     app_ble_pem3.oem3 (.data:ti_sysbios_hal_SecondsClock_Module__state__V)
                  200018ec    00000038     app_ble_pem3.oem3 (.data:ti_sysbios_gates_GateMutex_Object__table__V)
                  20001924    00000030     ble_user_config.obj (.data:rfRegTbl)
                  20001954    00000030     app_ble_pem3.oem3 (.data:ti_sysbios_knl_Swi_Module_State_0_readyQ__A)
                  20001984    00000030     app_ble_pem3.oem3 (.data:ti_sysbios_knl_Swi_Object__table__V)
                  200019b4    00000030     app_ble_pem3.oem3 (.data:ti_sysbios_knl_Task_Module_State_0_readyQ__A)
                  200019e4    00000028     ECCROMCC26XX.obj (.data:$O6$$)
                  20001a0c    00000020     drivers_cc26x0r2.aem3 : ADCCC26XX.oem3 (.data:$O1$$)
                  20001a2c    00000020                           : CryptoCC26XX.oem3 (.data:$O1$$)
                  20001a4c    00000020     app_ble_pem3.oem3 (.data:ti_sysbios_knl_Clock_Object__table__V)
                  20001a6c    00000020     app_ble_pem3.oem3 (.data:xdc_runtime_Error_IgnoreBlock)
                  20001a8c    00000018     app_ble_pem3.oem3 (.data:ti_sysbios_family_arm_m3_Hwi_Object__table__V)
                  20001aa4    00000014     main.obj (.data:$O25$$)
                  20001ab8    00000010     icall_user_config.obj (.data:bleAppServiceInfoTable)
                  20001ac8    00000010     ble_user_config.obj (.data:rfModeOverride)
                  20001ad8    0000000c     app_ble_pem3.oem3 (.data:ti_sysbios_heaps_HeapCallback_Object__table__V)
                  20001ae4    00000009     devinfoservice.obj (.data)
                  20001aed    00000003     oad.obj (.data)
                  20001af0    00000008     icall_cc2650.obj (.data:$O11$$)
                  20001af8    00000008     icall_api_lite.obj (.data:$O12$$)
                  20001b00    00000008     hal_assert.obj (.data:$O2$$)
                  20001b08    00000008     rtsv7M3_T_le_eabi.lib : _lock.c.obj (.data:$O26$$)
                  20001b10    00000008     icall_api_lite.obj (.data)
                  20001b18    00000008     app_ble_pem3.oem3 (.data:ti_sysbios_family_arm_cc26xx_Seconds_Module__state__V)
                  20001b20    00000008     app_ble_pem3.oem3 (.data:ti_sysbios_family_arm_m3_Hwi_Module__root__V)
                  20001b28    00000008     app_ble_pem3.oem3 (.data:ti_sysbios_gates_GateHwi_Module__root__V)
                  20001b30    00000008     app_ble_pem3.oem3 (.data:ti_sysbios_gates_GateMutex_Module__root__V)
                  20001b38    00000008     app_ble_pem3.oem3 (.data:ti_sysbios_hal_Hwi_Module__root__V)
                  20001b40    00000008     app_ble_pem3.oem3 (.data:ti_sysbios_heaps_HeapCallback_Module__root__V)
                  20001b48    00000008     app_ble_pem3.oem3 (.data:ti_sysbios_heaps_HeapMem_Module__root__V)
                  20001b50    00000008     app_ble_pem3.oem3 (.data:ti_sysbios_knl_Clock_Module__root__V)
                  20001b58    00000008     app_ble_pem3.oem3 (.data:ti_sysbios_knl_Event_Module__root__V)
                  20001b60    00000008     app_ble_pem3.oem3 (.data:ti_sysbios_knl_Mailbox_Module__root__V)
                  20001b68    00000008     app_ble_pem3.oem3 (.data:ti_sysbios_knl_Queue_Module__root__V)
                  20001b70    00000008     app_ble_pem3.oem3 (.data:ti_sysbios_knl_Semaphore_Module__root__V)
                  20001b78    00000008     app_ble_pem3.oem3 (.data:ti_sysbios_knl_Swi_Module__root__V)
                  20001b80    00000008     app_ble_pem3.oem3 (.data:ti_sysbios_knl_Task_Module__root__V)
                  20001b88    00000008     app_ble_pem3.oem3 (.data:xdc_runtime_Registry_Module__state__V)
                  20001b90    00000004     ble_user_config.obj (.data)
                  20001b94    00000004     myDataTransfer.obj (.data)
                  20001b98    00000004     rtsv7M3_T_le_eabi.lib : stkdepth_vars.c.obj (.data)
                  20001b9c    00000004     app_ble_pem3.oem3 (.data:ti_sysbios_family_arm_m3_Hwi_Module_State_0_excContext__A)
                  20001ba0    00000004     app_ble_pem3.oem3 (.data:ti_sysbios_family_arm_m3_Hwi_Module_State_0_excStack__A)
                  20001ba4    00000004     app_ble_pem3.oem3 (.data:ti_sysbios_knl_Task_Module_State_0_idleTask__A)
                  20001ba8    00000002     app_ble_pem3.oem3 (.data:ti_sysbios_family_arm_m3_Hwi_Module_State_0_excActive__A)
                  20001baa    00000001     TRNGCC26XX.obj (.data)
                  20001bab    00000001     drivers_cc26x0r2.aem3 : ADC.oem3 (.data)
                  20001bac    00000001                           : SPI.oem3 (.data)
                  20001bad    00000001                           : UART.oem3 (.data)
                  20001bae    00000001     flash_interface_ext_rtos.obj (.data)

.bss       0    20001bb0    00000cd5     UNINITIALIZED
                  20001bb0    000003a0     RFCC26XX_singleMode.obj (.bss:$O8$$)
                  20001f50    00000200     app_ble_pem3.oem3 (.bss:taskStackSection)
                  20002150    000001c8     (.common:spiCC26XXDMAObjects)
                  20002318    00000128     (.common:uartCC26XXObjects)
                  20002440    00000100     (.common:crcBuf)
                  20002540    000000dc     (.common:adcCC26xxObjects)
                  2000261c    000000c8     (.common:ti_sysbios_family_arm_m3_Hwi_dispatchTable)
                  200026e4    00000080     CC2640R2_LAUNCHXL.obj (.bss:uartStringBuf$24)
                  20002764    00000080     (.common:cryptoCC26XXObjects)
                  200027e4    00000020     (.common:uartCC26XXRingBuffer)
                  20002804    00000020     (.common:udmaObjects)
                  20002824    00000014     RFCC26XX_singleMode.obj (.bss:RF_ratSyncCmd$6)
                  20002838    00000014     driverlib.lib : osc.obj (.bss:oscHfGlobals$51)
                  2000284c    00000010     util.obj (.bss:str$1$4)
                  2000285c    0000000c     (.common:displayUartObject)
                  20002868    00000008     dpl_cc26x0r2.aem3 : PowerCC26XX_tirtos.oem3 (.bss:$O1$$)
                  20002870    00000008     driverlib.lib : sys_ctrl.obj (.bss:powerQualGlobals$53)
                  20002878    00000004     (.common:ClockP_tickPeriod)
                  2000287c    00000004     (.common:trngCC26XXObjects)
                  20002880    00000002     drivers_cc26x0r2.aem3 : UARTCC26XX.oem3 (.bss)
                  20002882    00000001     RFCC26XX_singleMode.obj (.bss)
                  20002883    00000001     drivers_cc26x0r2.aem3 : CryptoCC26XX.oem3 (.bss)
                  20002884    00000001     (.common:driverlib_release_0_53646)

.vtable    0    20002885    00000000     UNINITIALIZED

.vtable_ram 
*          0    20002885    00000000     UNINITIALIZED

vtable_ram 
*          0    20002885    00000000     UNINITIALIZED

.sysmem    0    20002885    00000000     UNINITIALIZED

.nonretenvar 
*          0    20002885    00000000     UNINITIALIZED

.stack     0    20003b50    00000400     UNINITIALIZED
                  20003b50    00000400     --HOLE--

.ccfg      0    0000d2f0    00000058     
                  0000d2f0    00000058     ccfg_app_ble.obj (.ccfg:retain)

MODULE SUMMARY

       Module                                   code    ro data   rw data
       ------                                   ----    -------   -------
    .\Application\
       simple_peripheral_oad_offchip.obj        7944    24        1592   
       board_key.obj                            340     0         184    
       myBlink.obj                              296     0         188    
       util.obj                                 232     17        16     
       bim_util.obj                             40      16        0      
       hal_assert.obj                           18      0         8      
    +--+----------------------------------------+-------+---------+---------+
       Total:                                   8870    57        1988   
                                                                         
    .\Drivers\ECC\
       ECCROMCC26XX.obj                         1442    64        40     
    +--+----------------------------------------+-------+---------+---------+
       Total:                                   1442    64        40     
                                                                         
    .\Drivers\RF\
       RFCC26XX_singleMode.obj                  5422    28        949    
    +--+----------------------------------------+-------+---------+---------+
       Total:                                   5422    28        949    
                                                                         
    .\Drivers\TRNG\
       TRNGCC26XX.obj                           272     0         1      
    +--+----------------------------------------+-------+---------+---------+
       Total:                                   272     0         1      
                                                                         
    .\ICallBLE\
       ble_user_config.obj                      24      277       68     
       icall_api_lite.obj                       62      0         16     
    +--+----------------------------------------+-------+---------+---------+
       Total:                                   86      277       84     
                                                                         
    .\ICall\
       icall.obj                                2478    24        156    
       icall_user_config.obj                    0       100       16     
       icall_cc2650.obj                         92      0         8      
    +--+----------------------------------------+-------+---------+---------+
       Total:                                   2570    124       180    
                                                                         
    .\Middleware\extflash\
       ExtFlash.obj                             660     8         108    
    +--+----------------------------------------+-------+---------+---------+
       Total:                                   660     8         108    
                                                                         
    .\OAD\
       oad.obj                                  3414    188       495    
       flash_interface_ext_rtos.obj             300     0         1      
       oad_image_header_app.obj                 0       165       0      
       crc32.obj                                28      0         0      
    +--+----------------------------------------+-------+---------+---------+
       Total:                                   3742    353       496    
                                                                         
    .\PROFILES\
       peripheral_observer.obj                  2720    0         840    
       myDataTransfer.obj                       436     100       284    
       devinfoservice.obj                       180     40        477    
       gattservapp_util.obj                     452     0         0      
       gatt_uuid.obj                            0       44        0      
    +--+----------------------------------------+-------+---------+---------+
       Total:                                   3788    184       1601   
                                                                         
    .\Startup\
       main.obj                                 720     16        20     
       CC2640R2_LAUNCHXL.obj                    0       535       128    
       CC2640R2_LAUNCHXL_fxns.obj               212     28        0      
       ccfg_app_ble.obj                         0       88        0      
    +--+----------------------------------------+-------+---------+---------+
       Total:                                   932     667       148    
                                                                         
    C:\Users\Alexey\AppData\Local\Temp\
       {364E84D0-D1F3-44FE-9654-C8B094B1BAEF}   0       114       1437   
    +--+----------------------------------------+-------+---------+---------+
       Total:                                   0       114       1437   
                                                                         
    D:\ti\simplelink_cc2640r2_sdk_2_40_00_32\source\ti\blestack\rom\ble_rom_releases\cc26xx_r2\Final_Release\
       common_r2.symbols                        16      0         0      
    +--+----------------------------------------+-------+---------+---------+
       Total:                                   16      0         0      
                                                                         
    D:\ti\workspace_v8\sport_tag\FlashROM\configPkg\package\cfg\
       app_ble_pem3.oem3                        832     1201      1816   
    +--+----------------------------------------+-------+---------+---------+
       Total:                                   832     1201      1816   
                                                                         
    D:/ti/simplelink_cc2640r2_sdk_2_40_00_32/kernel/tirtos/packages/ti/dpl/lib/dpl_cc26x0r2.aem3
       PowerCC26XX_tirtos.oem3                  300     0         8      
       ClockP_tirtos.oem3                       130     0         4      
       SemaphoreP_tirtos.oem3                   126     0         0      
       HwiP_tirtos.oem3                         122     0         0      
       SwiP_tirtos.oem3                         118     0         0      
       SystemP_tirtos.oem3                      30      0         0      
    +--+----------------------------------------+-------+---------+---------+
       Total:                                   826     0         12     
                                                                         
    D:/ti/simplelink_cc2640r2_sdk_2_40_00_32/source/ti/devices/cc26x0r2/driverlib/bin/ccs/driverlib.lib
       sys_ctrl.obj                             760     0         8      
       aux_adc.obj                              506     0         0      
       setup.obj                                324     0         0      
       osc.obj                                  284     0         20     
       crypto.obj                               148     0         0      
       chipinfo.obj                             108     0         0      
       uart.obj                                 94      0         0      
       ssi.obj                                  88      0         0      
       adi.obj                                  84      0         0      
       rfc.obj                                  64      0         0      
       cpu.obj                                  30      0         0      
    +--+----------------------------------------+-------+---------+---------+
       Total:                                   2490    0         28     
                                                                         
    D:/ti/simplelink_cc2640r2_sdk_2_40_00_32/source/ti/display/lib/display.aem3
       DisplayUart.oem3                         576     39        0      
       Display.oem3                             158     1         0      
    +--+----------------------------------------+-------+---------+---------+
       Total:                                   734     40        0      
                                                                         
    D:/ti/simplelink_cc2640r2_sdk_2_40_00_32/source/ti/drivers/lib/drivers_cc26x0r2.aem3
       PowerCC26XX.oem3                         2520    76        276    
       UARTCC26XX.oem3                          2644    108       2      
       SPICC26XXDMA.oem3                        2416    80        64     
       PINCC26XX.oem3                           1626    0         276    
       PowerCC26XX_calibrateRCOSC.oem3          1388    0         0      
       CryptoCC26XX.oem3                        1216    0         33     
       ADCCC26XX.oem3                           490     24        32     
       UART.oem3                                182     36        1      
       SPI.oem3                                 168     32        1      
       ADC.oem3                                 168     8         1      
       UDMACC26XX.oem3                          156     0         0      
       RingBuf.oem3                             148     0         0      
       List.oem3                                124     0         0      
    +--+----------------------------------------+-------+---------+---------+
       Total:                                   13246   364       686    
                                                                         
    D:\ti\ccsv8\tools\compiler\ti-cgt-arm_18.1.3.LTS\lib\rtsv7M3_T_le_eabi.lib
       memcpy_t2.asm.obj                        156     0         0      
       ull_div_t2.asm.obj                       150     0         0      
       memset_t2.asm.obj                        122     0         0      
       copy_decompress_lzss.c.obj               104     0         0      
       cpy_tbl.c.obj                            76      0         0      
       u_divt2.asm.obj                          64      0         0      
       memcmp.c.obj                             36      0         0      
       _lock.c.obj                              26      0         8      
       args_main.c.obj                          24      0         0      
       ll_mul_t2.asm.obj                        24      0         0      
       strlen.c.obj                             20      0         0      
       copy_decompress_none.c.obj               14      0         0      
       copy_zero_init.c.obj                     12      0         0      
       exit.c.obj                               4       0         0      
       stkdepth_vars.c.obj                      0       0         4      
       div0.asm.obj                             2       0         0      
    +--+----------------------------------------+-------+---------+---------+
       Total:                                   834     0         12     
                                                                         
    D:\ti\simplelink_cc2640r2_sdk_2_40_00_32\kernel\tirtos\packages\ti\targets\arm\rtsarm\lib\auto_init.aem3
       auto_init.oem3                           160     0         0      
    +--+----------------------------------------+-------+---------+---------+
       Total:                                   160     0         0      
                                                                         
    D:\ti\simplelink_cc2640r2_sdk_2_40_00_32\kernel\tirtos\packages\ti\targets\arm\rtsarm\lib\boot.aem3
       boot.oem3                                68      0         0      
    +--+----------------------------------------+-------+---------+---------+
       Total:                                   68      0         0      
                                                                         
    D:\ti\workspace_v8\sport_tag\TOOLS\src\sysbios\rom_sysbios.aem3
       rom_sysbios.obj                          3023    0         0      
       rom_sysbios_config.obj                   32      0         0      
    +--+----------------------------------------+-------+---------+---------+
       Total:                                   3055    0         0      
                                                                         
       Stack:                                   0       0         1024   
       Linker Generated:                        536     1491      0      
    +--+----------------------------------------+-------+---------+---------+
       Grand Total:                             50581   4972      10610  


LINKER GENERATED COPY TABLES

__TI_cinit_table @ 0000d89c records: 17, size/record: 8, table size: 136
	.data: load addr=0000d348, load size=00000451 bytes, run addr=20000520, run size=0000168f bytes, compression=lzss
	.data:ti_sysbios_family_arm_m3_Hwi_Module__state__V: load addr=0000d799, load size=00000029 bytes, run addr=20000144, run size=00000034 bytes, compression=lzss
	.data:ti_sysbios_knl_Task_Module__state__V: load addr=0000d7c2, load size=00000021 bytes, run addr=20000100, run size=00000044 bytes, compression=lzss
	.data:ti_sysbios_BIOS_Module__state__V: load addr=0000d7e3, load size=0000001f bytes, run addr=200001a4, run size=00000024 bytes, compression=lzss
	.data:ti_sysbios_knl_Clock_Module__state__V: load addr=0000d802, load size=0000001f bytes, run addr=20000178, run size=0000002c bytes, compression=lzss
	.data:ti_sysbios_knl_Swi_Module__state__V: load addr=0000d821, load size=00000010 bytes, run addr=200001c8, run size=0000001c bytes, compression=lzss
	.data:ti_sysbios_family_arm_cc26xx_Timer_Module__state__V: load addr=0000d840, load size=0000000b bytes, run addr=200001e4, run size=00000008 bytes, compression=lzss
	.TI.bound:dmaSpi0RxControlTableEntry: load addr=0000d850, load size=00000008 bytes, run addr=20000430, run size=00000010 bytes, compression=zero_init
	.TI.bound:dmaSpi0TxControlTableEntry: load addr=0000d858, load size=00000008 bytes, run addr=20000440, run size=00000010 bytes, compression=zero_init
	.TI.bound:dmaSpi1RxControlTableEntry: load addr=0000d860, load size=00000008 bytes, run addr=20000500, run size=00000010 bytes, compression=zero_init
	.TI.bound:dmaSpi1TxControlTableEntry: load addr=0000d868, load size=00000008 bytes, run addr=20000510, run size=00000010 bytes, compression=zero_init
	.bss: load addr=0000d870, load size=00000008 bytes, run addr=20001bb0, run size=00000cd5 bytes, compression=zero_init
	.data:xdc_runtime_Memory_Module__state__V: load addr=0000d878, load size=00000008 bytes, run addr=20000200, run size=00000004 bytes, compression=lzss
	.data:ti_sysbios_family_arm_cc26xx_TimestampProvider_Module__state__V: load addr=0000d880, load size=00000007 bytes, run addr=200001ec, run size=00000004 bytes, compression=lzss
	.data:xdc_runtime_Startup_Module__state__V: load addr=0000d887, load size=00000007 bytes, run addr=200001f0, run size=00000008 bytes, compression=lzss
	.data:xdc_runtime_System_Module__state__V: load addr=0000d88e, load size=00000007 bytes, run addr=200001f8, run size=00000008 bytes, compression=lzss
	.data:xdc_runtime_Error_Module__state__V: load addr=0000d895, load size=00000006 bytes, run addr=20000204, run size=00000002 bytes, compression=lzss


LINKER GENERATED HANDLER TABLE

__TI_handler_table @ 0000d834 records: 3, size/record: 4, table size: 12
	index: 0, handler: __TI_decompress_lzss
	index: 1, handler: __TI_decompress_none
	index: 2, handler: __TI_zero_init


FAR CALL TRAMPOLINES

callee name               trampoline name
   callee addr  tramp addr   call addr  call info
--------------  -----------  ---------  ----------------
ti_sysbios_knl_Event_pend__E  $Tramp$TT$L$PI$$ti_sysbios_knl_Event_pend__E
   10019bf9     00000a40     000003b8   simple_peripheral_oad_offchip.obj (.text:SimplePeripheral_taskFxn$3)
                             00000b92   peripheral_observer.obj (.text:gapRole_taskFxn$22)
                             000045ea   icall.obj (.text:icall_directAPI)
                             000099fe   icall.obj (.text:ICall_wait)
ti_sysbios_knl_Queue_get__E  $Tramp$TT$L$PI$$ti_sysbios_knl_Queue_get__E
   1001bd19     00000a48     00000498   simple_peripheral_oad_offchip.obj (.text:SimplePeripheral_taskFxn$3)
                             000006f6   simple_peripheral_oad_offchip.obj (.text:SimplePeripheral_taskFxn$3)
                             00000a24   simple_peripheral_oad_offchip.obj (.text:SimplePeripheral_taskFxn$3)
                             00008834   oad.obj (.text:oadResetState$16)
                             00008846   oad.obj (.text:oadResetState$16)
ti_sysbios_knl_Queue_empty__E  $Tramp$TT$L$PI$$ti_sysbios_knl_Queue_empty__E
   1001bf4f     00000a50     000006cc   simple_peripheral_oad_offchip.obj (.text:SimplePeripheral_taskFxn$3)
ti_sysbios_knl_Swi_destruct  $Tramp$TT$L$PI$$ti_sysbios_knl_Swi_destruct
   1001c115     0000c7a8     0000c762   dpl_cc26x0r2.aem3 : SwiP_tirtos.oem3 (.text:SwiP_destruct)
ti_sysbios_knl_Semaphore_destruct  $Tramp$TT$L$PI$$ti_sysbios_knl_Semaphore_destruct
   1001c10d     0000c7b0     0000c75a   dpl_cc26x0r2.aem3 : SemaphoreP_tirtos.oem3 (.text:SemaphoreP_destruct)
ti_sysbios_family_arm_m3_Hwi_setPriority__E  $Tramp$TT$L$PI$$ti_sysbios_family_arm_m3_Hwi_setPriority__E
   1001bc55     0000c7b8     0000c74e   dpl_cc26x0r2.aem3 : HwiP_tirtos.oem3 (.text:HwiP_setPriority)
ti_sysbios_family_arm_m3_Hwi_enableInterrupt__E  $Tramp$TT$L$PI$$ti_sysbios_family_arm_m3_Hwi_enableInterrupt__E
   1001af89     0000c7c0     0000c742   dpl_cc26x0r2.aem3 : HwiP_tirtos.oem3 (.text:HwiP_enableInterrupt)
ti_sysbios_family_arm_m3_Hwi_destruct  $Tramp$TT$L$PI$$ti_sysbios_family_arm_m3_Hwi_destruct
   1001c0a9     0000c7c8     0000c73a   dpl_cc26x0r2.aem3 : HwiP_tirtos.oem3 (.text:HwiP_destruct)
ti_sysbios_BIOS_getCpuFreq__E  $Tramp$TT$L$PI$$ti_sysbios_BIOS_getCpuFreq__E
   1001be91     0000c7d0     0000c722   dpl_cc26x0r2.aem3 : ClockP_tirtos.oem3 (.text:ClockP_getCpuFreq)
ti_sysbios_knl_Clock_destruct  $Tramp$TT$L$PI$$ti_sysbios_knl_Clock_destruct
   1001c0dd     0000c7d8     0000c71e   dpl_cc26x0r2.aem3 : ClockP_tirtos.oem3 (.text:ClockP_destruct)
ti_sysbios_knl_Semaphore_delete  $Tramp$TT$L$PI$$ti_sysbios_knl_Semaphore_delete
   1001c109     0000c7e0     0000c54e   dpl_cc26x0r2.aem3 : SemaphoreP_tirtos.oem3 (.text:SemaphoreP_delete)
xdc_runtime_Startup_startMods__I  $Tramp$TT$L$PI$$xdc_runtime_Startup_startMods__I
   1001c129     0000c7e8     0000c296   app_ble_pem3.oem3 (.text:xdc_runtime_Startup_exec__I)
ti_sysbios_knl_Clock_logTick__E  $Tramp$TT$L$PI$$ti_sysbios_knl_Clock_logTick__E
   1001b843     0000c7f0     0000c232   app_ble_pem3.oem3 (.text:ti_sysbios_knl_Clock_doTick__I)
ti_sysbios_knl_Swi_post__E  $Tramp$TT$L$PI$$ti_sysbios_knl_Swi_post__E
   1001b011     0000c7f8     0000c01c   rom_sysbios.aem3 : rom_sysbios.obj (.text:ti_sysbios_knl_Swi_or__E)
                             0000c23a   app_ble_pem3.oem3 (.text:ti_sysbios_knl_Clock_doTick__I)
                             0000c772   dpl_cc26x0r2.aem3 : SwiP_tirtos.oem3 (.text:SwiP_post)
ti_sysbios_BIOS_RtsGateProxy_leave__E  $Tramp$TT$L$PI$$ti_sysbios_BIOS_RtsGateProxy_leave__E
   1001c095     0000c800     0000bfe6   app_ble_pem3.oem3 (.text:ti_sysbios_BIOS_rtsUnlock__I)
xdc_runtime_Memory_free__E  $Tramp$TT$L$PI$$xdc_runtime_Memory_free__E
   1001c705     0000c808     0000bfa2   app_ble_pem3.oem3 (.text:free)
ti_sysbios_knl_Task_sleep__E  $Tramp$TT$L$PI$$ti_sysbios_knl_Task_sleep__E
   1001a5a5     0000c810     0000bf10   board_key.obj (.text:Task_sleepMS)
ti_sysbios_knl_Swi_construct  $Tramp$TT$L$PI$$ti_sysbios_knl_Swi_construct
   1001ad79     0000c818     0000bdf6   rom_sysbios.aem3 : rom_sysbios.obj (.text:ti_sysbios_knl_Swi_construct2__E)
ti_sysbios_BIOS_RtsGateProxy_enter__E  $Tramp$TT$L$PI$$ti_sysbios_BIOS_RtsGateProxy_enter__E
   1001c091     0000c820     0000bb5e   app_ble_pem3.oem3 (.text:ti_sysbios_BIOS_rtsLock__I)
ti_sysbios_family_arm_m3_Hwi_initNVIC__E  $Tramp$TT$L$PI$$ti_sysbios_family_arm_m3_Hwi_initNVIC__E
   1001a171     0000c828     0000b94a   rom_sysbios.aem3 : rom_sysbios.obj (.text:ti_sysbios_family_arm_m3_Hwi_romInitNVIC__I)
ti_sysbios_knl_Semaphore_construct  $Tramp$TT$L$PI$$ti_sysbios_knl_Semaphore_construct
   1001b45d     0000c830     0000b4ee   dpl_cc26x0r2.aem3 : SemaphoreP_tirtos.oem3 (.text:SemaphoreP_constructBinary)
xdc_runtime_Memory_alloc__E  $Tramp$TT$L$PI$$xdc_runtime_Memory_alloc__E
   1001c349     0000c838     0000b32a   app_ble_pem3.oem3 (.text:ti_sysbios_rts_gnu_MemAlloc_alloc)
xdc_runtime_Core_createObject__I  $Tramp$TT$L$PI$$xdc_runtime_Core_createObject__I
   1001c2c9     0000c840     0000b23c   app_ble_pem3.oem3 (.text:ti_sysbios_heaps_HeapCallback_Object__create__S)
ti_sysbios_knl_Task_startup__E  $Tramp$TT$L$PI$$ti_sysbios_knl_Task_startup__E
   1001c125     0000c848     0000b21c   app_ble_pem3.oem3 (.text:ti_sysbios_BIOS_startFunc__I)
ti_sysbios_knl_Swi_startup__E  $Tramp$TT$L$PI$$ti_sysbios_knl_Swi_startup__E
   1001c085     0000c850     0000b218   app_ble_pem3.oem3 (.text:ti_sysbios_BIOS_startFunc__I)
ti_sysbios_hal_Hwi_startup__E  $Tramp$TT$L$PI$$ti_sysbios_hal_Hwi_startup__E
   1001c04b     0000c858     0000b214   app_ble_pem3.oem3 (.text:ti_sysbios_BIOS_startFunc__I)
ti_sysbios_family_arm_cc26xx_Timer_startup__E  $Tramp$TT$L$PI$$ti_sysbios_family_arm_cc26xx_Timer_startup__E
   1001b4e9     0000c860     0000b210   app_ble_pem3.oem3 (.text:ti_sysbios_BIOS_startFunc__I)
xdc_runtime_System_atexit__E  $Tramp$TT$L$PI$$xdc_runtime_System_atexit__E
   1001c581     0000c868     0000b208   app_ble_pem3.oem3 (.text:ti_sysbios_BIOS_startFunc__I)
ti_sysbios_BIOS_linkedWithIncorrectBootLibrary__E  $Tramp$TT$L$PI$$ti_sysbios_BIOS_linkedWithIncorrectBootLibrary__E
   1001a683     0000c870     0000b202   app_ble_pem3.oem3 (.text:ti_sysbios_BIOS_startFunc__I)
ti_sysbios_BIOS_setThreadType__E  $Tramp$TT$L$PI$$ti_sysbios_BIOS_setThreadType__E
   1001bea1     0000c878     0000b1d4   app_ble_pem3.oem3 (.text:ti_sysbios_BIOS_atExitFunc__I)
                             0000c0fa   app_ble_pem3.oem3 (.text:ti_sysbios_BIOS_errorRaiseHook__I)
                             0000c10a   app_ble_pem3.oem3 (.text:ti_sysbios_BIOS_exitFunc__I)
ti_sysbios_knl_Swi_disable__E  $Tramp$TT$L$PI$$ti_sysbios_knl_Swi_disable__E
   1001bf11     0000c880     0000b1ca   app_ble_pem3.oem3 (.text:ti_sysbios_BIOS_atExitFunc__I)
                             0000be0e   icall.obj (.text:ICall_enterCSImpl)
                             0000c766   dpl_cc26x0r2.aem3 : SwiP_tirtos.oem3 (.text:SwiP_disable)
ti_sysbios_knl_Queue_Object__get__S  $Tramp$TT$L$PI$$ti_sysbios_knl_Queue_Object__get__S
   1001bb79     0000c888     0000afd2   rom_sysbios.aem3 : rom_sysbios.obj (.text:ti_sysbios_knl_Swi_setPri__E)
ti_sysbios_family_arm_m3_Hwi_construct  $Tramp$TT$L$PI$$ti_sysbios_family_arm_m3_Hwi_construct
   1001aabd     0000c890     0000ab56   rom_sysbios.aem3 : rom_sysbios.obj (.text:ti_sysbios_family_arm_m3_Hwi_construct2__E)
ti_sysbios_knl_Swi_Params__init__S  $Tramp$TT$L$PI$$ti_sysbios_knl_Swi_Params__init__S
   1001c015     0000c898     0000aade   dpl_cc26x0r2.aem3 : SwiP_tirtos.oem3 (.text:SwiP_construct)
ti_sysbios_family_arm_m3_Hwi_Params__init__S  $Tramp$TT$L$PI$$ti_sysbios_family_arm_m3_Hwi_Params__init__S
   1001bf79     0000c8a0     0000a938   dpl_cc26x0r2.aem3 : HwiP_tirtos.oem3 (.text:HwiP_construct)
xdc_runtime_Startup_rtsDone__E  $Tramp$TT$L$PI$$xdc_runtime_Startup_rtsDone__E
   1001c769     0000c8a8     0000a8de   rom_sysbios.aem3 : rom_sysbios.obj (.text:ti_sysbios_heaps_HeapCallback_Module_startup__E)
                             0000b1fa   app_ble_pem3.oem3 (.text:ti_sysbios_BIOS_startFunc__I)
ti_sysbios_knl_Task_construct  $Tramp$TT$L$PI$$ti_sysbios_knl_Task_construct
   1001ae19     0000c8b0     0000a68a   peripheral_observer.obj (.text:GAPRole_createTask)
                             0000aab4   simple_peripheral_oad_offchip.obj (.text:SimplePeripheral_createTask)
ti_sysbios_knl_Semaphore_create  $Tramp$TT$L$PI$$ti_sysbios_knl_Semaphore_create
   1001b2d1     0000c8b8     0000a5c8   ECCROMCC26XX.obj (.text:ECCROMCC26XX_init)
                             0000b518   dpl_cc26x0r2.aem3 : SemaphoreP_tirtos.oem3 (.text:SemaphoreP_createBinary)
ti_sysbios_knl_Semaphore_Params__init__S  $Tramp$TT$L$PI$$ti_sysbios_knl_Semaphore_Params__init__S
   1001c009     0000c8c0     0000a5ba   ECCROMCC26XX.obj (.text:ECCROMCC26XX_init)
                             0000b4de   dpl_cc26x0r2.aem3 : SemaphoreP_tirtos.oem3 (.text:SemaphoreP_constructBinary)
                             0000b508                     : SemaphoreP_tirtos.oem3 (.text:SemaphoreP_createBinary)
xdc_runtime_System_exit__E  $Tramp$TT$L$PI$$xdc_runtime_System_exit__E
   1001c6d5     0000c8c8     0000a3f8   boot.aem3 : boot.oem3 (.text)
                             0000c110   app_ble_pem3.oem3 (.text:ti_sysbios_BIOS_exitFunc__I)
ti_sysbios_knl_Event_create  $Tramp$TT$L$PI$$ti_sysbios_knl_Event_create
   1001b42d     0000c8d0     0000a002   icall.obj (.text:ICall_newTask$8)
ti_sysbios_knl_Queue_put__E  $Tramp$TT$L$PI$$ti_sysbios_knl_Queue_put__E
   1001bd35     0000c8d8     00009e80   simple_peripheral_oad_offchip.obj (.text:SimplePeripheral_enqueueMsg$3)
                             00009f34   oad.obj (.text:oadEnqueueMsg$16)
ti_sysbios_knl_Clock_construct  $Tramp$TT$L$PI$$ti_sysbios_knl_Clock_construct
   1001b269     0000c8e0     00009d4a   dpl_cc26x0r2.aem3 : ClockP_tirtos.oem3 (.text:ClockP_construct)
                             0000a220   util.obj (.text:Util_constructClock)
ti_sysbios_knl_Task_restore__E  $Tramp$TT$L$PI$$ti_sysbios_knl_Task_restore__E
   1001b7f5     0000c8e8     00009426   icall.obj (.text:ICall_createRemoteTasksAtRuntime)
                             0000baca   dpl_cc26x0r2.aem3 : PowerCC26XX_tirtos.oem3 (.text:PowerCC26XX_schedulerRestore)
ti_sysbios_knl_Task_create  $Tramp$TT$L$PI$$ti_sysbios_knl_Task_create
   1001accd     0000c8f0     00009408   icall.obj (.text:ICall_createRemoteTasksAtRuntime)
ti_sysbios_knl_Task_Params__init__S  $Tramp$TT$L$PI$$ti_sysbios_knl_Task_Params__init__S
   1001c021     0000c8f8     000093ee   icall.obj (.text:ICall_createRemoteTasksAtRuntime)
                             0000a66a   peripheral_observer.obj (.text:GAPRole_createTask)
                             0000aa96   simple_peripheral_oad_offchip.obj (.text:SimplePeripheral_createTask)
ti_sysbios_knl_Task_disable__E  $Tramp$TT$L$PI$$ti_sysbios_knl_Task_disable__E
   1001bf31     0000c900     000093e0   icall.obj (.text:ICall_createRemoteTasksAtRuntime)
                             0000b1ce   app_ble_pem3.oem3 (.text:ti_sysbios_BIOS_atExitFunc__I)
                             0000ba9a   dpl_cc26x0r2.aem3 : PowerCC26XX_tirtos.oem3 (.text:PowerCC26XX_schedulerDisable)
ti_sysbios_knl_Clock_TimerProxy_getPeriod__E  $Tramp$TT$L$PI$$ti_sysbios_knl_Clock_TimerProxy_getPeriod__E
   1001c0d5     0000c908     0000840c   rom_sysbios.aem3 : rom_sysbios.obj (.text:ti_sysbios_hal_SecondsClock_Module_startup__E)
ti_sysbios_knl_Clock_getTimerHandle__E  $Tramp$TT$L$PI$$ti_sysbios_knl_Clock_getTimerHandle__E
   1001bfcd     0000c910     000083fe   rom_sysbios.aem3 : rom_sysbios.obj (.text:ti_sysbios_hal_SecondsClock_Module_startup__E)
ti_sysbios_knl_Clock_create  $Tramp$TT$L$PI$$ti_sysbios_knl_Clock_create
   1001b1fd     0000c918     00008328   icall.obj (.text:ICall_setTimer)
ti_sysbios_knl_Clock_Params__init__S  $Tramp$TT$L$PI$$ti_sysbios_knl_Clock_Params__init__S
   1001bfc1     0000c920     00008314   icall.obj (.text:ICall_setTimer)
                             00009d30   dpl_cc26x0r2.aem3 : ClockP_tirtos.oem3 (.text:ClockP_construct)
                             0000a1fa   util.obj (.text:Util_constructClock)
ti_sysbios_knl_Clock_scheduleNextTick__E  $Tramp$TT$L$PI$$ti_sysbios_knl_Clock_scheduleNextTick__E
   1001bca9     0000c928     00007b02   rom_sysbios.aem3 : rom_sysbios.obj (.text:ti_sysbios_knl_Clock_workFuncDynamic__E)
ti_sysbios_knl_Clock_walkQueueDynamic__E  $Tramp$TT$L$PI$$ti_sysbios_knl_Clock_walkQueueDynamic__E
   1001a2f1     0000c930     00007aca   rom_sysbios.aem3 : rom_sysbios.obj (.text:ti_sysbios_knl_Clock_workFuncDynamic__E)
                             00007ae6                    : rom_sysbios.obj (.text:ti_sysbios_knl_Clock_workFuncDynamic__E)
ti_sysbios_knl_Clock_TimerProxy_getCurrentTick__E  $Tramp$TT$L$PI$$ti_sysbios_knl_Clock_TimerProxy_getCurrentTick__E
   1001bee1     0000c938     00007a98   rom_sysbios.aem3 : rom_sysbios.obj (.text:ti_sysbios_knl_Clock_workFuncDynamic__E)
                             0000b562                    : rom_sysbios.obj (.text:ti_sysbios_knl_Clock_getTicksUntilInterrupt__E)
ti_sysbios_family_arm_m3_Hwi_disableFxn__E  $Tramp$TT$L$PI$$ti_sysbios_family_arm_m3_Hwi_disableFxn__E
   1001bf85     0000c940     00006e7c   TRNGCC26XX.obj (.text:TRNGCC26XX_getNumber)
                             0000a5a2   ECCROMCC26XX.obj (.text:ECCROMCC26XX_init)
                             0000b76a   TRNGCC26XX.obj (.text:TRNGCC26XX_init)
                             0000bd66   TRNGCC26XX.obj (.text:TRNGCC26XX_open)
                             0000be18   icall.obj (.text:ICall_enterCSImpl)
                             0000c73e   dpl_cc26x0r2.aem3 : HwiP_tirtos.oem3 (.text:HwiP_disable)
ti_sysbios_BIOS_start__E  $Tramp$TT$L$PI$$ti_sysbios_BIOS_start__E
   1001beb1     0000c948     00005a56   main.obj (.text:main)
eccRom_genKeys            $Tramp$TT$L$PI$$eccRom_genKeys
   10016c1d     0000c950     0000549e   ECCROMCC26XX.obj (.text:ECCROMCC26XX_genKeys)
ti_sysbios_knl_Event_post__E  $Tramp$TT$L$PI$$ti_sysbios_knl_Event_post__E
   1001a455     0000c958     0000462c   icall.obj (.text:icall_directAPI)
                             00008cd2   icall.obj (.text:ICall_send)
                             00008d3e   icall.obj (.text:ICall_sendServiceComplete)
                             00009e8c   simple_peripheral_oad_offchip.obj (.text:SimplePeripheral_enqueueMsg$3)
                             0000bc9a   icall.obj (.text:ICall_primRepostSync$8)
                             0000c358   simple_peripheral_oad_offchip.obj (.text:SimplePeripheral_clockHandler$3)
                             0000c366   simple_peripheral_oad_offchip.obj (.text:SimplePeripheral_processOadWriteCB$3)
                             0000c3b6   peripheral_observer.obj (.text:gapRole_setEvent$22)
                             0000c474   icall.obj (.text:ICall_signal)
ti_sysbios_knl_Clock_getTicks__E  $Tramp$TT$L$PI$$ti_sysbios_knl_Clock_getTicks__E
   1001b29d     0000c960     000045d6   icall.obj (.text:icall_directAPI)
                             0000463c   icall.obj (.text:icall_directAPI)
                             0000a41a   rom_sysbios.aem3 : rom_sysbios.obj (.text:ti_sysbios_hal_SecondsClock_increment__I)
                             0000b610                    : rom_sysbios.obj (.text:ti_sysbios_knl_Clock_getTimeout__E)
ti_sysbios_knl_Task_self__E  $Tramp$TT$L$PI$$ti_sysbios_knl_Task_self__E
   1001c02d     0000c968     00004552   icall.obj (.text:icall_directAPI)
                             000045a6   icall.obj (.text:icall_directAPI)
                             00009444   icall.obj (.text:ICall_enrollService)
                             00009622   icall.obj (.text:ICall_fetchMsg)
                             000099b6   icall.obj (.text:ICall_wait)
                             00009dba   icall.obj (.text:ICall_registerApp)
                             0000bc86   icall.obj (.text:ICall_primRepostSync$8)
eccRom_genSharedSecret    $Tramp$TT$L$PI$$eccRom_genSharedSecret
   10016c65     0000c970     000044a8   ECCROMCC26XX.obj (.text:ECCROMCC26XX_genDHKey)
ti_sysbios_knl_Semaphore_post__E  $Tramp$TT$L$PI$$ti_sysbios_knl_Semaphore_post__E
   1001a3e1     0000c978     000043f6   ECCROMCC26XX.obj (.text:ECCROMCC26XX_genDHKey)
                             000044e4   ECCROMCC26XX.obj (.text:ECCROMCC26XX_genDHKey)
                             00005448   ECCROMCC26XX.obj (.text:ECCROMCC26XX_genKeys)
                             000054da   ECCROMCC26XX.obj (.text:ECCROMCC26XX_genKeys)
                             0000c75e   dpl_cc26x0r2.aem3 : SemaphoreP_tirtos.oem3 (.text:SemaphoreP_post)
ti_sysbios_knl_Semaphore_pend__E  $Tramp$TT$L$PI$$ti_sysbios_knl_Semaphore_pend__E
   10019b05     0000c980     000043c4   ECCROMCC26XX.obj (.text:ECCROMCC26XX_genDHKey)
                             00005416   ECCROMCC26XX.obj (.text:ECCROMCC26XX_genKeys)
                             0000c26a   dpl_cc26x0r2.aem3 : SemaphoreP_tirtos.oem3 (.text:SemaphoreP_pend)
ti_sysbios_knl_Swi_restore__E  $Tramp$TT$L$PI$$ti_sysbios_knl_Swi_restore__E
   1001b305     0000c988     000035b2   drivers_cc26x0r2.aem3 : PowerCC26XX.oem3 (.text:Power_sleep)
                             00006506   RFCC26XX_singleMode.obj (.text:RF_pendCmd)
                             00006538   RFCC26XX_singleMode.obj (.text:RF_pendCmd)
                             00006588   RFCC26XX_singleMode.obj (.text:RF_pendCmd)
                             0000c076   icall.obj (.text:ICall_leaveCSImpl)
ti_sysbios_family_arm_m3_Hwi_restoreFxn__E  $Tramp$TT$L$PI$$ti_sysbios_family_arm_m3_Hwi_restoreFxn__E
   1001c061     0000c990     00002bce   RFCC26XX_singleMode.obj (.text:RF_fsmActiveState$6)
                             00002c4e   RFCC26XX_singleMode.obj (.text:RF_fsmActiveState$6)
                             00002c6e   RFCC26XX_singleMode.obj (.text:RF_fsmActiveState$6)
                             00003238   drivers_cc26x0r2.aem3 : CryptoCC26XX.oem3 (.text:cryptoTransactionExecute)
                             00003292                         : CryptoCC26XX.oem3 (.text:cryptoTransactionExecute)
                             00003308                         : CryptoCC26XX.oem3 (.text:cryptoTransactionExecute)
                             00003386                         : CryptoCC26XX.oem3 (.text:cryptoTransactionExecute)
                             00003882                         : SPICC26XXDMA.oem3 (.text:SPICC26XXDMA_transfer)
                             000038a6                         : SPICC26XXDMA.oem3 (.text:SPICC26XXDMA_transfer)
                             000038f4                         : SPICC26XXDMA.oem3 (.text:SPICC26XXDMA_transfer)
                             00003922                         : SPICC26XXDMA.oem3 (.text:SPICC26XXDMA_transfer)
                             000039ec                         : SPICC26XXDMA.oem3 (.text:SPICC26XXDMA_transfer)
                             00003b06   RFCC26XX_singleMode.obj (.text:RF_open)
                             00003bc8   RFCC26XX_singleMode.obj (.text:RF_open)
                             00004af2   drivers_cc26x0r2.aem3 : PowerCC26XX.oem3 (.text:Power_shutdown)
                             00004c96                         : UARTCC26XX.oem3 (.text:UARTCC26XX_open)
                             00004ca2                         : UARTCC26XX.oem3 (.text:UARTCC26XX_open)
                             00004d1e                         : UARTCC26XX.oem3 (.text:UARTCC26XX_open)
                             0000509c                         : UARTCC26XX.oem3 (.text:UARTCC26XX_read)
                             000050dc                         : UARTCC26XX.oem3 (.text:UARTCC26XX_read)
                             000050f8                         : UARTCC26XX.oem3 (.text:UARTCC26XX_read)
                             00005146                         : UARTCC26XX.oem3 (.text:UARTCC26XX_read)
                             00005170                         : UARTCC26XX.oem3 (.text:UARTCC26XX_read)
                             00005180                         : UARTCC26XX.oem3 (.text:UARTCC26XX_read)
                             00005772                         : SPICC26XXDMA.oem3 (.text:SPICC26XXDMA_open)
                             00005782                         : SPICC26XXDMA.oem3 (.text:SPICC26XXDMA_open)
                             00005cf0                         : UARTCC26XX.oem3 (.text:UARTCC26XX_write)
                             00005d0c                         : UARTCC26XX.oem3 (.text:UARTCC26XX_write)
                             00005da8                         : UARTCC26XX.oem3 (.text:UARTCC26XX_write)
                             00005f4e   RFCC26XX_singleMode.obj (.text:RF_radioOpDoneCb$6)
                             0000609c   drivers_cc26x0r2.aem3 : SPICC26XXDMA.oem3 (.text:SPICC26XXDMA_transferCancel)
                             0000610c                         : SPICC26XXDMA.oem3 (.text:SPICC26XXDMA_transferCancel)
                             00006158                         : SPICC26XXDMA.oem3 (.text:SPICC26XXDMA_transferCancel)
                             000062fc                         : PINCC26XX.oem3 (.text:PINCC26XX_setIoCfg)
                             0000644c                         : CryptoCC26XX.oem3 (.text:CryptoCC26XX_open)
                             0000645a                         : CryptoCC26XX.oem3 (.text:CryptoCC26XX_open)
                             000065f2   RFCC26XX_singleMode.obj (.text:RF_swiHw$6)
                             000067e8   RFCC26XX_singleMode.obj (.text:RF_postCmd)
                             000068aa   RFCC26XX_singleMode.obj (.text:RF_control)
                             00006a1e   drivers_cc26x0r2.aem3 : PowerCC26XX.oem3 (.text:Power_releaseDependency)
                             00006cf8                         : PowerCC26XX.oem3 (.text:Power_setDependency)
                             00006f0e   TRNGCC26XX.obj (.text:TRNGCC26XX_getNumber)
                             00007114   RFCC26XX_singleMode.obj (.text:RF_abortCmd$6)
                             0000744c   drivers_cc26x0r2.aem3 : PowerCC26XX.oem3 (.text:switchXOSCHFclockFunc)
                             000077a8                         : UARTCC26XX.oem3 (.text:UARTCC26XX_writeCancel)
                             000077be                         : UARTCC26XX.oem3 (.text:UARTCC26XX_writeCancel)
                             00007804                         : UARTCC26XX.oem3 (.text:UARTCC26XX_writeCancel)
                             00007a1e                         : UARTCC26XX.oem3 (.text:UARTCC26XX_swiIntFxn)
                             00007a4e                         : UARTCC26XX.oem3 (.text:UARTCC26XX_swiIntFxn)
                             000080a0                         : SPICC26XXDMA.oem3 (.text:SPICC26XXDMA_swiFxn)
                             00008170                         : ADCCC26XX.oem3 (.text:ADCCC26XX_open)
                             000081ae                         : ADCCC26XX.oem3 (.text:ADCCC26XX_open)
                             000085e8   RFCC26XX_singleMode.obj (.text:RF_ratFreeChannel$6)
                             00008dee   drivers_cc26x0r2.aem3 : PowerCC26XX_calibrateRCOSC.oem3 (.text:PowerCC26XX_initiateCalibration)
                             00009052   RFCC26XX_singleMode.obj (.text:RF_getCurrentTime)
                             0000908e   RFCC26XX_singleMode.obj (.text:RF_getCurrentTime)
                             000091ae   drivers_cc26x0r2.aem3 : UARTCC26XX.oem3 (.text:UARTCC26XX_readCancel)
                             000091b8                         : UARTCC26XX.oem3 (.text:UARTCC26XX_readCancel)
                             000091ce                         : UARTCC26XX.oem3 (.text:UARTCC26XX_readCancel)
                             00009544   RFCC26XX_singleMode.obj (.text:RF_dispatchNextEvent$6)
                             000098e8   drivers_cc26x0r2.aem3 : UDMACC26XX.oem3 (.text:UDMACC26XX_open)
                             00009b04   RFCC26XX_singleMode.obj (.text:RF_getInfo)
                             00009b54   drivers_cc26x0r2.aem3 : UARTCC26XX.oem3 (.text:UARTCC26XX_control)
                             0000a18a                         : PINCC26XX.oem3 (.text:PIN_setOutputEnable)
                             0000a356                         : RingBuf.oem3 (.text:RingBuf_put)
                             0000a380                         : RingBuf.oem3 (.text:RingBuf_put)
                             0000a54a                         : ADC.oem3 (.text:ADC_init)
                             0000a5d0   ECCROMCC26XX.obj (.text:ECCROMCC26XX_init)
                             0000a746   drivers_cc26x0r2.aem3 : PowerCC26XX.oem3 (.text:PowerCC26XX_isStableXOSC_HF)
                             0000a78a                         : SPI.oem3 (.text:SPI_init)
                             0000a80a                         : UART.oem3 (.text:UART_init)
                             0000a986                         : RingBuf.oem3 (.text:RingBuf_get)
                             0000a98e                         : RingBuf.oem3 (.text:RingBuf_get)
                             0000a9c0                         : ADCCC26XX.oem3 (.text:ADCCC26XX_close)
                             0000aa82   RFCC26XX_singleMode.obj (.text:RF_cmdStoreEvents$6)
                             0000acb8   RFCC26XX_singleMode.obj (.text:RF_powerConstraintRelease)
                             0000ada0   drivers_cc26x0r2.aem3 : UDMACC26XX.oem3 (.text:UDMACC26XX_close)
                             0000ae9e                         : PowerCC26XX.oem3 (.text:Power_releaseConstraint)
                             0000aed2   RFCC26XX_singleMode.obj (.text:RF_runDirectImmediateCmd$6)
                             0000b12c   drivers_cc26x0r2.aem3 : PowerCC26XX.oem3 (.text:Power_setConstraint)
                             0000b782   TRNGCC26XX.obj (.text:TRNGCC26XX_init)
                             0000b86a   drivers_cc26x0r2.aem3 : List.oem3 (.text:List_remove)
                             0000b9a8                         : List.oem3 (.text:List_get)
                             0000b9cc                         : List.oem3 (.text:List_put)
                             0000baec                         : PowerCC26XX.oem3 (.text:Power_unregisterNotify)
                             0000bd3c   RFCC26XX_singleMode.obj (.text:RF_powerConstraintSet)
                             0000bd72   TRNGCC26XX.obj (.text:TRNGCC26XX_open)
                             0000c06e   icall.obj (.text:ICall_leaveCSImpl)
                             0000c13a   drivers_cc26x0r2.aem3 : List.oem3 (.text:List_clearList)
ti_sysbios_knl_Clock_start__E  $Tramp$TT$L$PI$$ti_sysbios_knl_Clock_start__E
   1001be1f     0000c998     0000191a   oad.obj (.text:oadImgBlockWrite$16)
                             00005ff4   dpl_cc26x0r2.aem3 : PowerCC26XX_tirtos.oem3 (.text:PowerCC26XX_standbyPolicy)
                             0000835a   icall.obj (.text:ICall_setTimer)
                             00008458   rom_sysbios.aem3 : rom_sysbios.obj (.text:ti_sysbios_hal_SecondsClock_Module_startup__E)
                             0000acf4   util.obj (.text:Util_restartClock)
                             0000c72e   dpl_cc26x0r2.aem3 : ClockP_tirtos.oem3 (.text:ClockP_start)
                             0000c77e   util.obj (.text:Util_startClock)
ti_sysbios_knl_Clock_setTimeout__E  $Tramp$TT$L$PI$$ti_sysbios_knl_Clock_setTimeout__E
   1001c0e5     0000c9a0     00001900   oad.obj (.text:oadImgBlockWrite$16)
                             00005fee   dpl_cc26x0r2.aem3 : PowerCC26XX_tirtos.oem3 (.text:PowerCC26XX_standbyPolicy)
                             00008354   icall.obj (.text:ICall_setTimer)
                             0000acee   util.obj (.text:Util_restartClock)
                             0000c72a   dpl_cc26x0r2.aem3 : ClockP_tirtos.oem3 (.text:ClockP_setTimeout)
ti_sysbios_knl_Clock_stop__E  $Tramp$TT$L$PI$$ti_sysbios_knl_Clock_stop__E
   1001bab9     0000c9a8     000018e8   oad.obj (.text:oadImgBlockWrite$16)
                             00006000   dpl_cc26x0r2.aem3 : PowerCC26XX_tirtos.oem3 (.text:PowerCC26XX_standbyPolicy)
                             00008344   icall.obj (.text:ICall_setTimer)
                             0000acd6   util.obj (.text:Util_restartClock)
                             0000c602   icall.obj (.text:ICall_stopTimer)
                             0000c732   dpl_cc26x0r2.aem3 : ClockP_tirtos.oem3 (.text:ClockP_stop)
                             0000c782   util.obj (.text:Util_stopClock)
ti_sysbios_knl_Queue_construct  $Tramp$TT$L$PI$$ti_sysbios_knl_Queue_construct
   1001b6a1     0000c9b0     0000134c   simple_peripheral_oad_offchip.obj (.text:SimplePeripheral_init$3)
                             000016cc   simple_peripheral_oad_offchip.obj (.text:SimplePeripheral_init$3)

[69 trampolines]
[236 trampoline calls]


GLOBAL SYMBOLS: SORTED ALPHABETICALLY BY Name 

address   name                                                                      
-------   ----                                                                      
0000d22a  ADCBuf_count                                                              
0000a999  ADCCC26XX_close                                                           
0000c6c1  ADCCC26XX_control                                                         
00006329  ADCCC26XX_convert                                                         
0000a4dd  ADCCC26XX_convertToMicroVolts                                             
0000d09c  ADCCC26XX_fxnTable                                                        
0000c681  ADCCC26XX_init                                                            
00008155  ADCCC26XX_open                                                            
0000c5cd  ADC_Params_init                                                           
0000c5d7  ADC_close                                                                 
0000c9b8  ADC_config                                                                
0000c5e1  ADC_convert                                                               
0000c5eb  ADC_convertToMicroVolts                                                   
0000d22b  ADC_count                                                                 
0000d23c  ADC_defaultParams                                                         
0000a51d  ADC_init                                                                  
0000a55d  ADC_open                                                                  
20000590  AdvTypeStrings                                                            
00003e41  AssertHandler                                                             
0000cd60  BoardGpioInitTable                                                        
0000be41  Board_Power_down                                                          
0000c2a1  Board_setLed0_my                                                          
0000c2b1  Board_setLed1_my                                                          
0000c119  Board_setVibro                                                            
2000166c  ButtonTableWakeUp                                                         
0000c787  C$$EXIT                                                                   
00007f25  CC2640R2_LAUNCHXL_shutDownExtFlash                                        
0000a0c5  CC2640R2_LAUNCHXL_wakeUpExtFlash                                          
0000c5f5  ClockP_Params_init                                                        
00009d15  ClockP_construct                                                          
0000c71f  ClockP_destruct                                                           
0000c723  ClockP_getCpuFreq                                                         
1001b29d  ClockP_getSystemTicks                                                     
0000c727  ClockP_getTimeout                                                         
0000c2c1  ClockP_isActive                                                           
0000c72b  ClockP_setTimeout                                                         
0000c72f  ClockP_start                                                              
0000c733  ClockP_stop                                                               
20002878  ClockP_tickPeriod                                                         
0000c689  CryptoCC26XX_Params_init                                                  
000080c9  CryptoCC26XX_allocateKey                                                  
0000d244  CryptoCC26XX_config                                                       
0000b805  CryptoCC26XX_hwiIntFxn                                                    
0000ba19  CryptoCC26XX_init                                                         
0000924d  CryptoCC26XX_loadKey                                                      
00006401  CryptoCC26XX_open                                                         
0000c6c7  CryptoCC26XX_transact                                                     
0000c6cd  CryptoCC26XX_transactPolling                                              
0000727b  DefaultAssertCback                                                        
0000b5a9  DisplayUartAnsi_clear                                                     
00006fd5  DisplayUartAnsi_clearLines                                                
0000c051  DisplayUartAnsi_close                                                     
0000c6d3  DisplayUartAnsi_control                                                   
0000cfb8  DisplayUartAnsi_fxnTable                                                  
0000c6d9  DisplayUartAnsi_getType                                                   
00007c4b  DisplayUartAnsi_init                                                      
0000712d  DisplayUartAnsi_open                                                      
00007649  DisplayUartAnsi_vprintf                                                   
0000d1d8  Display_config                                                            
0000d22c  Display_count                                                             
0000cbe3  Display_defaultParams                                                     
00000ff5  Display_doClearLines                                                      
0000c4d1  Display_doClose                                                           
00009679  Display_doOpen                                                            
0000b5d3  Display_doPrintf                                                          
00009d65  ECCROMCC26XX_Params_init                                                  
00004371  ECCROMCC26XX_genDHKey                                                     
000053e5  ECCROMCC26XX_genKeys                                                      
0000a59d  ECCROMCC26XX_init                                                         
0000bbb9  ECC_ArrayAllZeros                                                         
00009bc5  ExtFlash_close                                                            
00006a39  ExtFlash_open                                                             
0000a5dd  ExtFlash_read                                                             
0000ba39  GAPRole_CancelDiscovery                                                   
00005635  GAPRole_GetParameter                                                      
00002cad  GAPRole_SetParameter                                                      
0000ada9  GAPRole_StartDiscovery                                                    
0000b399  GAPRole_TerminateConnection                                               
0000a65d  GAPRole_createTask                                                        
0000c245  GATTServApp_FindAttr                                                      
0000ba59  GATTServApp_InitCharCfg                                                   
00009379  GATTServApp_ProcessCCCWriteReq                                            
00008265  GATTServApp_ProcessCharCfg                                                
0000c2d1  GATTServApp_ReadCharCfg                                                   
0000bc15  GATT_bm_alloc                                                             
0000bc31  GATT_bm_free                                                              
2000173c  HEAPMGR_SIZE                                                              
0000c2e1  HwiP_Params_init                                                          
0000c737  HwiP_clearInterrupt                                                       
0000a91d  HwiP_construct                                                            
0000c73b  HwiP_destruct                                                             
0000c73f  HwiP_disable                                                              
0000c743  HwiP_enableInterrupt                                                      
0000c2f1  HwiP_inISR                                                                
0000c747  HwiP_post                                                                 
1001c061  HwiP_restore                                                              
0000c74b  HwiP_setFunc                                                              
0000c74f  HwiP_setPriority                                                          
0000d22d  I2C_count                                                                 
0000c461  ICall_abort                                                               
000093d9  ICall_createRemoteTasksAtRuntime                                          
20001740  ICall_dispatcher                                                          
00009439  ICall_enrollService                                                       
0000be0d  ICall_enterCSImpl                                                         
2000171c  ICall_enterCriticalSection                                                
00009619  ICall_fetchMsg                                                            
0000afe5  ICall_fetchServiceMsg                                                     
0000addd  ICall_free                                                                
0000c6df  ICall_freeMsg                                                             
00008a55  ICall_getHeapStats                                                        
0000b829  ICall_getLocalMsgEntityId                                                 
1001b29d  ICall_getTicks                                                            
0000addd  ICall_heapFree                                                            
00008a55  ICall_heapGetStats                                                        
00008ac5  ICall_heapInit                                                            
00007fb1  ICall_heapMalloc                                                          
0000c067  ICall_leaveCSImpl                                                         
20001720  ICall_leaveCriticalSection                                                
0000c753  ICall_malloc                                                              
0000bc69  ICall_mallocLimited                                                       
0000c07d  ICall_pwrDispense                                                         
0000c093  ICall_pwrRequire                                                          
00009731  ICall_pwrUpdActivityCounter                                               
00009db5  ICall_registerApp                                                         
0000ae45  ICall_searchServiceEntity                                                 
00008c85  ICall_send                                                                
00008cf1  ICall_sendServiceComplete                                                 
000082e9  ICall_setTimer                                                            
0000b96d  ICall_setTimerMSecs                                                       
0000c46f  ICall_signal                                                              
0000c5ff  ICall_stopTimer                                                           
000099b3  ICall_wait                                                                
200019ec  K2_mont                                                                   
0000c12d  List_clearList                                                            
0000b98f  List_get                                                                  
0000b9b1  List_put                                                                  
0000b84d  List_remove                                                               
0000ab79  MyDataTransfer_GetParameter                                               
00009e05  MyDataTransfer_SetParameter                                               
0000727d  MyPowerDown                                                               
10019898  NIST_Curve_P256_Gx                                                        
100198bc  NIST_Curve_P256_Gy                                                        
10019850  NIST_Curve_P256_a                                                         
10019874  NIST_Curve_P256_b                                                         
10019808  NIST_Curve_P256_p                                                         
1001982c  NIST_Curve_P256_r                                                         
0000b9d3  NOROM_AUXADCAdjustValueForGainAndOffset                                   
000081dd  NOROM_AUXADCDisable                                                       
0000b0a9  NOROM_AUXADCDisableInputScaling                                           
00006af1  NOROM_AUXADCEnableSync                                                    
0000c311  NOROM_AUXADCFlushFifo                                                     
0000bca1  NOROM_AUXADCGetAdjustmentGain                                             
0000be59  NOROM_AUXADCGetAdjustmentOffset                                           
0000c321  NOROM_AUXADCReadFifo                                                      
0000c141  NOROM_AUXADCValueToMicrovolts                                             
0000c4e9  NOROM_CPUcpsid                                                            
0000c4f5  NOROM_CPUcpsie                                                            
0000c6e5  NOROM_CPUdelay                                                            
00007c4d  NOROM_CRYPTOAesLoadKey                                                    
0000b41d  NOROM_ChipInfo_GetChipFamily                                              
0000b651  NOROM_ChipInfo_GetChipType                                                
0000be71  NOROM_ChipInfo_GetPackageType                                             
00008d5d  NOROM_OSCHF_AttemptToSwitchToXosc                                         
0000a301  NOROM_OSCHF_SwitchToRcOscTurnOffXosc                                      
0000b871  NOROM_OSCHF_TurnOnXosc                                                    
0000aa11  NOROM_OSC_HPOSCRelativeFrequencyOffsetGet                                 
0000c501  NOROM_OSC_HPOSCRelativeFrequencyOffsetToRFCoreFormatConvert               
0000be89  NOROM_RFCCpeIntGetAndClear                                                
0000b679  NOROM_RFCDoorbellSendTo                                                   
0000a499  NOROM_SSIConfigSetExpClk                                                  
0000c50d  NOROM_SSIDataGet                                                          
0000c609  NOROM_SSIDataPut                                                          
00006ba9  NOROM_SetupTrimDevice                                                     
00008b35  NOROM_SysCtrlAdjustRechargeAfterPowerDown                                 
00003619  NOROM_SysCtrlSetRechargeBeforePowerDown                                   
00008f75  NOROM_SysCtrl_DCDC_VoltageConditionalControl                              
0000c47d  NOROM_UARTCharGetNonBlocking                                              
0000c48b  NOROM_UARTCharPutNonBlocking                                              
0000b9f5  NOROM_UARTConfigSetExpClk                                                 
0000ba79  NOROM_UARTDisable                                                         
0000d22e  NVS_count                                                                 
20000527  NumLastBase                                                               
0000d170  OAD_EXTFL_ID                                                              
0000d168  OAD_IMG_ID                                                                
000087f1  OAD_cancel                                                                
000092b1  OAD_getSWVersion                                                          
0000a69d  PINCC26XX_getConfig                                                       
0000c331  PINCC26XX_getPinCount                                                     
0000d24c  PINCC26XX_hwAttrs                                                         
0000b0d9  PINCC26XX_setMux                                                          
0000b6a1  PINCC26XX_setWakeup                                                       
00008fdd  PIN_add                                                                   
0000bbd7  PIN_close                                                                 
0000bea1  PIN_getConfig                                                             
0000c155  PIN_getInputValue                                                         
000041b9  PIN_init                                                                  
00007469  PIN_open                                                                  
0000c519  PIN_registerIntCb                                                         
00009a0d  PIN_remove                                                                
0000abb1  PIN_setConfig                                                             
0000abe9  PIN_setInterrupt                                                          
0000a155  PIN_setOutputEnable                                                       
0000ac21  PIN_setOutputValue                                                        
0000d22f  PWM_count                                                                 
0000978d  PowerCC26XX_RCOSC_clockFunc                                               
000020f5  PowerCC26XX_auxISR                                                        
00009499  PowerCC26XX_calibrate                                                     
0000d0b4  PowerCC26XX_config                                                        
000046ad  PowerCC26XX_doCalibrate                                                   
00008dc9  PowerCC26XX_initiateCalibration                                           
0000a71d  PowerCC26XX_isStableXOSC_HF                                               
2000148c  PowerCC26XX_module                                                        
0000ba99  PowerCC26XX_schedulerDisable                                              
0000bab9  PowerCC26XX_schedulerRestore                                              
00005f9d  PowerCC26XX_standbyPolicy                                                 
2000286c  PowerCC26XX_swiKey                                                        
0000c757  PowerCC26XX_switchXOSC_HF                                                 
20002868  PowerCC26XX_taskKey                                                       
0000c525  Power_getConstraintMask                                                   
0000c531  Power_getDependencyCount                                                  
0000bbf5  Power_getTransitionLatency                                                
0000beb9  Power_idleFunc                                                            
00005191  Power_init                                                                
0000b6c9  Power_registerNotify                                                      
0000ae79  Power_releaseConstraint                                                   
0000697d  Power_releaseDependency                                                   
0000b109  Power_setConstraint                                                       
00006c5d  Power_setDependency                                                       
000049c1  Power_shutdown                                                            
000033ed  Power_sleep                                                               
0000bad9  Power_unregisterNotify                                                    
0000c169  RF_Params_init                                                            
0000c499  RF_cancelCmd                                                              
000067fd  RF_control                                                                
0000c613  RF_flushCmd                                                               
0000c191  RF_getCmdOp                                                               
00009045  RF_getCurrentTime                                                         
00009abd  RF_getInfo                                                                
0000bd11  RF_getRssi                                                                
00003a55  RF_open                                                                   
000064d5  RF_pendCmd                                                                
00006739  RF_postCmd                                                                
0000c53d  RF_powerConstraintGet                                                     
0000ac91  RF_powerConstraintRelease                                                 
0000bd2d  RF_powerConstraintSet                                                     
0000b6f1  RF_runCmd                                                                 
0000c6eb  RF_runDirectCmd                                                           
0000c6f1  RF_runImmediateCmd                                                        
0000a3cd  ResetISR                                                                  
0000c257  RingBuf_construct                                                         
0000a95b  RingBuf_get                                                               
0000a345  RingBuf_put                                                               
0000d230  SD_count                                                                  
UNDEFED   SHT$$INIT_ARRAY$$Base                                                     
UNDEFED   SHT$$INIT_ARRAY$$Limit                                                    
00009cc1  SPICC26XXDMA_close                                                        
00007d75  SPICC26XXDMA_control                                                      
0000d0cc  SPICC26XXDMA_fxnTable                                                     
0000c4a7  SPICC26XXDMA_init                                                         
00005759  SPICC26XXDMA_open                                                         
00003839  SPICC26XXDMA_transfer                                                     
00006085  SPICC26XXDMA_transferCancel                                               
0000c1b9  SPI_Params_init                                                           
0000c61d  SPI_close                                                                 
0000d0e4  SPI_config                                                                
0000d231  SPI_count                                                                 
0000cfd8  SPI_defaultParams                                                         
0000a75d  SPI_init                                                                  
0000a79d  SPI_open                                                                  
0000c627  SPI_transfer                                                              
0000b4a1  SafeHapiAuxAdiSelect                                                      
0000b741  SafeHapiVoid                                                              
0000b4cd  SemaphoreP_constructBinary                                                
0000b4f9  SemaphoreP_createBinary                                                   
0000c549  SemaphoreP_delete                                                         
0000c75b  SemaphoreP_destruct                                                       
0000c269  SemaphoreP_pend                                                           
0000c75f  SemaphoreP_post                                                           
0000550d  SendToBlink                                                               
0000aee1  SimplePeripheral_RegistertToAllConnectionEvent                            
0000aa89  SimplePeripheral_createTask                                               
0000c371  SwiP_Params_init                                                          
0000aac5  SwiP_construct                                                            
0000c763  SwiP_destruct                                                             
0000c767  SwiP_disable                                                              
0000c76b  SwiP_getTrigger                                                           
0000c27b  SwiP_inISR                                                                
0000c76f  SwiP_or                                                                   
0000c773  SwiP_post                                                                 
1001b305  SwiP_restore                                                              
0000c777  SwiP_setPriority                                                          
0000be27  SystemP_snprintf                                                          
0000c77b  SystemP_vsnprintf                                                         
0000d294  TRNGCC26XXHWAttrs                                                         
0000cd50  TRNGCC26XX_config                                                         
00006e75  TRNGCC26XX_getNumber                                                      
0000b769  TRNGCC26XX_init                                                           
0000bd65  TRNGCC26XX_open                                                           
0000bf01  Task_sleepMS                                                              
20000550  TimeLastBase                                                              
0000cf48  TxPowerTable                                                              
0000836d  UARTCC26XX_close                                                          
00009b15  UARTCC26XX_control                                                        
0000ced0  UARTCC26XX_fxnTable                                                       
00004dd5  UARTCC26XX_hwiIntFxn                                                      
0000bf19  UARTCC26XX_init                                                           
00004c81  UARTCC26XX_open                                                           
0000505d  UARTCC26XX_read                                                           
0000917d  UARTCC26XX_readCancel                                                     
0000c6f7  UARTCC26XX_readPolling                                                    
000079ed  UARTCC26XX_swiIntFxn                                                      
00005cb5  UARTCC26XX_write                                                          
00007785  UARTCC26XX_writeCancel                                                    
0000c6fd  UARTCC26XX_writePolling                                                   
0000bf31  UART_Params_init                                                          
0000c64f  UART_close                                                                
0000d1e4  UART_config                                                               
0000c659  UART_control                                                              
0000d232  UART_count                                                                
0000cf70  UART_defaultParams                                                        
0000a7dd  UART_init                                                                 
0000a81d  UART_open                                                                 
0000c663  UART_write                                                                
0000ad71  UDMACC26XX_close                                                          
0000d254  UDMACC26XX_config                                                         
0000c66d  UDMACC26XX_hwiIntFxn                                                      
000098a1  UDMACC26XX_open                                                           
0000a1e5  Util_constructClock                                                       
00009ea5  Util_convertBdAddr2Str                                                    
00009b6d  Util_convertBytes2Str                                                     
0000c381  Util_isActive                                                             
0000acc9  Util_restartClock                                                         
0000c77f  Util_startClock                                                           
0000c783  Util_stopClock                                                            
0000d233  Watchdog_count                                                            
00000000  __ASM__                                                                   
00000057  __ISA__                                                                   
00000069  __PLAT__                                                                  
20003f50  __STACK_END                                                               
00000400  __STACK_SIZE                                                              
20003f50  __STACK_TOP                                                               
00000090  __TARG__                                                                  
0000d89c  __TI_CINIT_Base                                                           
0000d924  __TI_CINIT_Limit                                                          
0000d834  __TI_Handler_Table_Base                                                   
0000d840  __TI_Handler_Table_Limit                                                  
000075a9  __TI_auto_init                                                            
000091e5  __TI_decompress_lzss                                                      
0000c4b5  __TI_decompress_none                                                      
ffffffff  __TI_pprof_out_hndl                                                       
ffffffff  __TI_prof_data_size                                                       
ffffffff  __TI_prof_data_start                                                      
00000000  __TI_static_base__                                                        
0000c56d  __TI_zero_init                                                            
000000b5  __TRDR__                                                                  
0001ffff  __UNUSED_FLASH_end__                                                      
00000000  __UNUSED_FLASH_start__                                                    
20005000  __UNUSED_SRAM_end__                                                       
20000000  __UNUSED_SRAM_start__                                                     
00009a0b  __aeabi_idiv0                                                             
00009a0b  __aeabi_ldiv0                                                             
0000bfc1  __aeabi_lmul                                                              
00008963  __aeabi_memclr                                                            
00008963  __aeabi_memclr4                                                           
00008963  __aeabi_memclr8                                                           
00007821  __aeabi_memcpy                                                            
00007821  __aeabi_memcpy4                                                           
00007821  __aeabi_memcpy8                                                           
00008965  __aeabi_memset                                                            
00008965  __aeabi_memset4                                                           
00008965  __aeabi_memset8                                                           
0000a89d  __aeabi_uidiv                                                             
0000a89d  __aeabi_uidivmod                                                          
00007bb5  __aeabi_uldivmod                                                          
ffffffff  __binit__                                                                 
ffffffff  __c_args__                                                                
0000d2f0  __ccfg                                                                    
20003b50  __stack                                                                   
0000bf49  _args_main                                                                
0000a3cd  _c_int00                                                                  
00000000  _imageHdr                                                                 
20001b08  _lock                                                                     
000086f7  _nop                                                                      
0000c555  _register_lock                                                            
0000c561  _register_unlock                                                          
20001b0c  _unlock                                                                   
0000cd94  a_mont                                                                    
0000c787  abort                                                                     
0000cb94  adcCC26xxHWAttrs                                                          
20002540  adcCC26xxObjects                                                          
200015e6  akk_full                                                                  
200015fe  akk_low                                                                   
200015f2  akk_medium                                                                
20001b90  appAssertCback                                                            
20001660  appKeyChangeHandler                                                       
0000d28b  appTxPwrTbl                                                               
0000ce66  appearanceUUID                                                            
20000736  arBaseTable                                                               
20001b00  assertSubcause                                                            
0000cdb4  b_mont                                                                    
ffffffff  binit                                                                     
20001ab8  bleAppServiceInfoTable                                                    
0000cf94  bleStackConfig                                                            
0000d1f0  boardConfig                                                               
200015b2  change_md                                                                 
0000ce62  charAggFormatUUID                                                         
0000ce5c  charExtPropsUUID                                                          
0000ce60  charFormatUUID                                                            
0000ce50  charUserDescUUID                                                          
0000ce4e  characterUUID                                                             
0000ce52  clientCharCfgUUID                                                         
200015ad  cntG                                                                      
200015ac  cntR                                                                      
200015ae  cntV                                                                      
200015c2  conn_md                                                                   
20000560  connectionEventRegisterCauseBitMap                                        
0000a079  copy_in                                                                   
20002440  crcBuf                                                                    
0000d1a8  cryptoCC26XXHWAttrs                                                       
20002764  cryptoCC26XXObjects                                                       
0000ce78  cryptoDriverTableBLE                                                      
20000564  curCmd                                                                    
200006aa  cur_tag_settings                                                          
20000528  currPosBaseTable                                                          
0000cb26  devInfo11073CertUUID                                                      
0000d1fc  devInfoCBs                                                                
0000cbe1  devInfoFirmwareRevUUID                                                    
0000d165  devInfoHardwareRevUUID                                                    
0000d1d5  devInfoMfrNameUUID                                                        
0000d291  devInfoModelNumberUUID                                                    
0000d2e0  devInfoPnpIdUUID                                                          
0000d2e2  devInfoSerialNumberUUID                                                   
0000d2e4  devInfoServUUID                                                           
0000d2e6  devInfoSoftwareRevUUID                                                    
0000d2e8  devInfoSystemIdUUID                                                       
0000ce64  deviceNameUUID                                                            
20000534  dispHandle                                                                
0000d140  displayUartHWAttrs                                                        
2000285c  displayUartObject                                                         
0000d0fc  driverTable                                                               
0000c0bf  driverTable_fnSpinlock                                                    
20002884  driverlib_release_0_53646                                                 
0000d1b8  eccDriverTable                                                            
10016c1d  eccRom_genKeys                                                            
10016c65  eccRom_genSharedSecret                                                    
20004f80  eccRom_param_Gx                                                           
20004f84  eccRom_param_Gy                                                           
20004f94  eccRom_param_a                                                            
20004f98  eccRom_param_b                                                            
20004f8c  eccRom_param_p                                                            
20004f90  eccRom_param_r                                                            
100167a5  eccRom_signHash                                                           
10016941  eccRom_verifyHash                                                         
20004f9c  eccRom_windowSize                                                         
20004f88  eccRom_workzone                                                           
00009315  eraseFlashPg                                                              
0000ce72  extReportRefUUID                                                          
20001616  finish_st                                                                 
0000d924  flashEndAddr                                                              
0000c1e1  flash_close                                                               
0000bf79  flash_open                                                                
0000bf91  free                                                                      
20000c6c  gapRoleTask                                                               
20000cc0  gapRoleTaskStack                                                          
0000c3b1  gapRole_clockHandler                                                      
0000ce54  gapServiceUUID                                                            
0000ce56  gattServiceUUID                                                           
20001630  greenBP                                                                   
20001664  hKeyPins                                                                  
20001b04  halAssertCback                                                            
0000c3c1  halAssertHandlerExt                                                       
00009677  halAssertSpinlock                                                         
20003b50  heapEnd                                                                   
20002885  heapStart                                                                 
20001730  heapmgrMemFreeTotal                                                       
20000530  iBuffInLen                                                                
20000532  iBuffOutLen                                                               
20000526  iCurrCmd                                                                  
20000525  iExpectedCrc                                                              
2000052e  iExpectedLen                                                              
200015a8  iG                                                                        
200015a6  iR                                                                        
2000052a  iRecivedLen                                                               
2000052c  iSendedLen                                                                
200015aa  iV                                                                        
0000ccc4  icallServiceTable                                                         
00004515  icall_directAPI                                                           
200015b0  ignoreG                                                                   
200015af  ignoreR                                                                   
200015b1  ignoreV                                                                   
0000b791  imgIDCheck                                                                
0000ce5a  includeUUID                                                               
20001680  keyPins                                                                   
20001674  keyPinsCfg                                                                
20001b14  lastAppOpcodeIdxSent                                                      
20001668  ledPinHandle                                                              
2000168c  ledPinState                                                               
20001698  ledPinTable                                                               
20001b01  legacyMode                                                                
20000b58  linkDBNumConns                                                            
00005989  main                                                                      
20001b98  main_func_sp                                                              
0000b311  malloc                                                                    
200015a2  maxG                                                                      
200015a0  maxR                                                                      
200015a4  maxV                                                                      
0000bd81  memCpy                                                                    
0000b895  memcmp                                                                    
00007821  memcpy                                                                    
0000896b  memset                                                                    
20000eb2  metaPage                                                                  
0000cbe4  myDataTransferCBs                                                         
0000d188  myDataTransferUUID                                                        
0000cbf0  myDataTransfer_MyBufIn1UUID                                               
0000cc10  myDataTransfer_MyBufIn2UUID                                               
0000cc00  myDataTransfer_MyBufOut1UUID                                              
0000cc20  myDataTransfer_MyBufOut2UUID                                              
20001648  normal_st                                                                 
0000ca68  oadCBs                                                                    
200015d2  off_pw                                                                    
200015ca  on_pw                                                                     
0000bd9d  openTRNG                                                                  
0000c703  osalHeapAllocFxn                                                          
0000c709  osalHeapFreeFxn                                                           
0000c585  osalHeapGetStatsFxn                                                       
0000c591  osalHeapInitFxn                                                           
0000c78f  osalHeapIsBlockingFxn                                                     
200015a3  outG                                                                      
200015a1  outR                                                                      
200015a5  outV                                                                      
20000548  pBuffIn                                                                   
2000054c  pBuffOut                                                                  
20001b10  pRfErrCb                                                                  
0000ce6c  periConnParamUUID                                                         
0000ce68  periPrivacyFlagUUID                                                       
20001af8  pfnBMAlloc                                                                
20001afc  pfnBMFree                                                                 
20001410  pinHandleTable                                                            
2000137c  pinLowerBound                                                             
20001378  pinUpperBound                                                             
20000524  previonsMode                                                              
000000a8  prgEntryAddr                                                              
0000ce4c  primaryServiceUUID                                                        
20000520  ramStartHere                                                              
0000bfa9  readFlashPg                                                               
0000ce6a  reconnectAddrUUID                                                         
20001624  redBP                                                                     
0000ce74  reportRefUUID                                                             
0000cc30  resourceDB                                                                
0000cb28  rfDriverTableBLE                                                          
0000c70f  rfErrCb                                                                   
20001ac8  rfModeOverride                                                            
20001924  rfRegTbl                                                                  
0000d274  rtosApiTable                                                              
200015ba  run_md                                                                    
200005fc  sbpTask                                                                   
20000838  sbpTaskStack                                                              
0000ce58  secondaryServiceUUID                                                      
0000ce5e  servCharCfgUUID                                                           
0000ce6e  serviceChangedUUID                                                        
200015da  simpleblink                                                               
0000cdd4  spiCC26XXDMAHWAttrs                                                       
20002150  spiCC26XXDMAObjects                                                       
20001aa4  stackImageHeader                                                          
2000160a  start_st                                                                  
0000c1f5  strlen                                                                    
200001a4  ti_sysbios_BIOS_Module__state__V                                          
1001b9d9  ti_sysbios_BIOS_RtsGateProxy_Handle__label__S                             
1001b9d9  ti_sysbios_BIOS_RtsGateProxy_Handle__label__S__mangled__                  
1001b88d  ti_sysbios_BIOS_RtsGateProxy_Object__delete__S                            
1001bfb5  ti_sysbios_BIOS_RtsGateProxy_Params__init__S                              
1001bfb5  ti_sysbios_BIOS_RtsGateProxy_Params__init__S__mangled__                   
1001c091  ti_sysbios_BIOS_RtsGateProxy_enter__E                                     
1001c095  ti_sysbios_BIOS_RtsGateProxy_leave__E                                     
1001c0bd  ti_sysbios_BIOS_RtsGateProxy_query__E                                     
1001c0bd  ti_sysbios_BIOS_RtsGateProxy_query__E__mangled__                          
0000b1c9  ti_sysbios_BIOS_atExitFunc__I                                             
0000c0eb  ti_sysbios_BIOS_errorRaiseHook__I                                         
0000c101  ti_sysbios_BIOS_exitFunc__I                                               
1001be81  ti_sysbios_BIOS_exit__E                                                   
1001be91  ti_sysbios_BIOS_getCpuFreq__E                                             
0000c5a9  ti_sysbios_BIOS_getThreadType__E                                          
1001a683  ti_sysbios_BIOS_linkedWithIncorrectBootLibrary__E                         
00009d13  ti_sysbios_BIOS_nullFunc__I                                               
0000b8b9  ti_sysbios_BIOS_registerRTSLock__I                                        
0000b8dd  ti_sysbios_BIOS_removeRTSLock__I                                          
0000bb59  ti_sysbios_BIOS_rtsLock__I                                                
0000bfd9  ti_sysbios_BIOS_rtsUnlock__I                                              
1001bea1  ti_sysbios_BIOS_setThreadType__E                                          
0000b1f9  ti_sysbios_BIOS_startFunc__I                                              
1001beb1  ti_sysbios_BIOS_start__E                                                  
00006ba9  ti_sysbios_family_arm_cc26xx_Boot_trimDevice                              
20001b18  ti_sysbios_family_arm_cc26xx_Seconds_Module__state__V                     
0000ad01  ti_sysbios_family_arm_cc26xx_Seconds_get__E                               
0000b901  ti_sysbios_family_arm_cc26xx_Seconds_set__E                               
00001280  ti_sysbios_family_arm_cc26xx_Timer_Module__id__C                          
1001b8f9  ti_sysbios_family_arm_cc26xx_Timer_Module__startupDone__S                 
200001e4  ti_sysbios_family_arm_cc26xx_Timer_Module__state__V                       
1001b845  ti_sysbios_family_arm_cc26xx_Timer_Module_startup__E                      
20001868  ti_sysbios_family_arm_cc26xx_Timer_Object__table__V                       
0000bb79  ti_sysbios_family_arm_cc26xx_Timer_dynamicStub__E                         
0000d298  ti_sysbios_family_arm_cc26xx_Timer_funcHookCH1__C                         
0000d29c  ti_sysbios_family_arm_cc26xx_Timer_funcHookCH2__C                         
0000c209  ti_sysbios_family_arm_cc26xx_Timer_getCount64__E                          
0000ad39  ti_sysbios_family_arm_cc26xx_Timer_getCurrentTick__E                      
1001c099  ti_sysbios_family_arm_cc26xx_Timer_getExpiredTicks__E                     
0000c677  ti_sysbios_family_arm_cc26xx_Timer_getFreq__E                             
0000b925  ti_sysbios_family_arm_cc26xx_Timer_getMaxTicks__E                         
1001c09d  ti_sysbios_family_arm_cc26xx_Timer_getPeriod__E                           
0000af7d  ti_sysbios_family_arm_cc26xx_Timer_initDevice__I                          
10019f25  ti_sysbios_family_arm_cc26xx_Timer_periodicStub__E                        
1001b4bd  ti_sysbios_family_arm_cc26xx_Timer_postInit__I                            
0000b017  ti_sysbios_family_arm_cc26xx_Timer_setNextTick__E                         
1001c0a1  ti_sysbios_family_arm_cc26xx_Timer_setPeriod__E                           
0000a22d  ti_sysbios_family_arm_cc26xx_Timer_setThreshold__I                        
00007e95  ti_sysbios_family_arm_cc26xx_Timer_start__E                               
000011f8  ti_sysbios_family_arm_cc26xx_Timer_startupNeeded__C                       
1001b4e9  ti_sysbios_family_arm_cc26xx_Timer_startup__E                             
200001ec  ti_sysbios_family_arm_cc26xx_TimestampProvider_Module__state__V           
1001b919  ti_sysbios_family_arm_cc26xx_TimestampProvider_Module_startup__E          
0000c4c3  ti_sysbios_family_arm_cc26xx_TimestampProvider_get32__E                   
1001b77d  ti_sysbios_family_arm_cc26xx_TimestampProvider_get64__E                   
1001bf6b  ti_sysbios_family_arm_cc26xx_TimestampProvider_getFreq__E                 
00001282  ti_sysbios_family_arm_cc26xx_TimestampProvider_useClockTimer__C           
000011fc  ti_sysbios_family_arm_m3_Hwi_E_alreadyDefined__C                          
00001200  ti_sysbios_family_arm_m3_Hwi_E_hwiLimitExceeded__C                        
1001a755  ti_sysbios_family_arm_m3_Hwi_Instance_finalize__E                         
10019fc1  ti_sysbios_family_arm_m3_Hwi_Instance_init__E                             
20001ba8  ti_sysbios_family_arm_m3_Hwi_Module_State_0_excActive__A                  
20001b9c  ti_sysbios_family_arm_m3_Hwi_Module_State_0_excContext__A                 
20001ba0  ti_sysbios_family_arm_m3_Hwi_Module_State_0_excStack__A                   
00001284  ti_sysbios_family_arm_m3_Hwi_Module__id__C                                
20001b20  ti_sysbios_family_arm_m3_Hwi_Module__root__V                              
1001b939  ti_sysbios_family_arm_m3_Hwi_Module__startupDone__S                       
20000144  ti_sysbios_family_arm_m3_Hwi_Module__state__V                             
1001aeb5  ti_sysbios_family_arm_m3_Hwi_Module_startup__E                            
00001204  ti_sysbios_family_arm_m3_Hwi_NUM_INTERRUPTS__C                            
00001070  ti_sysbios_family_arm_m3_Hwi_Object__DESC__C                              
1001c9e8  ti_sysbios_family_arm_m3_Hwi_Object__PARAMS__C                            
00001208  ti_sysbios_family_arm_m3_Hwi_Object__count__C                             
1001a7b9  ti_sysbios_family_arm_m3_Hwi_Object__create__S                            
1001b959  ti_sysbios_family_arm_m3_Hwi_Object__delete__S                            
1001bc39  ti_sysbios_family_arm_m3_Hwi_Object__destruct__S                          
1001b515  ti_sysbios_family_arm_m3_Hwi_Object__get__S                               
0000120c  ti_sysbios_family_arm_m3_Hwi_Object__table__C                             
20001a8c  ti_sysbios_family_arm_m3_Hwi_Object__table__V                             
1001bf79  ti_sysbios_family_arm_m3_Hwi_Params__init__S                              
00001210  ti_sysbios_family_arm_m3_Hwi_ccr__C                                       
0000bdb9  ti_sysbios_family_arm_m3_Hwi_clearInterrupt__E                            
1001aabd  ti_sysbios_family_arm_m3_Hwi_construct                                    
0000ab3d  ti_sysbios_family_arm_m3_Hwi_construct2__E                                
1001a8e5  ti_sysbios_family_arm_m3_Hwi_create                                       
1001c0a5  ti_sysbios_family_arm_m3_Hwi_delete                                       
1001c0a9  ti_sysbios_family_arm_m3_Hwi_destruct                                     
1001bf85  ti_sysbios_family_arm_m3_Hwi_disableFxn__E                                
1001af45  ti_sysbios_family_arm_m3_Hwi_disableInterrupt__E                          
1001a81d  ti_sysbios_family_arm_m3_Hwi_dispatchC__I                                 
2000261c  ti_sysbios_family_arm_m3_Hwi_dispatchTable                                
1001c7a5  ti_sysbios_family_arm_m3_Hwi_dispatch__I                                  
1001c043  ti_sysbios_family_arm_m3_Hwi_doSwiRestore__I                              
1001c05b  ti_sysbios_family_arm_m3_Hwi_doTaskRestore__I                             
1001bf91  ti_sysbios_family_arm_m3_Hwi_enableFxn__E                                 
1001af89  ti_sysbios_family_arm_m3_Hwi_enableInterrupt__E                           
1001c901  ti_sysbios_family_arm_m3_Hwi_excHandlerAsm__I                             
00001214  ti_sysbios_family_arm_m3_Hwi_excHandlerFunc__C                            
1001b979  ti_sysbios_family_arm_m3_Hwi_excHandler__I                                
1001b099  ti_sysbios_family_arm_m3_Hwi_getStackInfo__E                              
1001a171  ti_sysbios_family_arm_m3_Hwi_initNVIC__E                                  
1001c8b9  ti_sysbios_family_arm_m3_Hwi_initStacks__E                                
00001218  ti_sysbios_family_arm_m3_Hwi_nullIsrFunc__C                               
0000121c  ti_sysbios_family_arm_m3_Hwi_numSparseInterrupts__C                       
e000e000  ti_sysbios_family_arm_m3_Hwi_nvic                                         
1001c93f  ti_sysbios_family_arm_m3_Hwi_pendSV__I                                    
1001bdc1  ti_sysbios_family_arm_m3_Hwi_plug__E                                      
10019e75  ti_sysbios_family_arm_m3_Hwi_postInit__I                                  
0000c3d1  ti_sysbios_family_arm_m3_Hwi_post__E                                      
00001220  ti_sysbios_family_arm_m3_Hwi_priGroup__C                                  
20000000  ti_sysbios_family_arm_m3_Hwi_ramVectors                                   
000000a8  ti_sysbios_family_arm_m3_Hwi_resetVectors                                 
1001c061  ti_sysbios_family_arm_m3_Hwi_restoreFxn__E                                
1001c957  ti_sysbios_family_arm_m3_Hwi_return                                       
0000b949  ti_sysbios_family_arm_m3_Hwi_romInitNVIC__I                               
0000c715  ti_sysbios_family_arm_m3_Hwi_setFunc__E                                   
1001bc55  ti_sysbios_family_arm_m3_Hwi_setPriority__E                               
1001c04b  ti_sysbios_family_arm_m3_Hwi_startup__E                                   
0000d2a0  ti_sysbios_family_arm_m3_Hwi_swiDisable__C                                
0000d2a4  ti_sysbios_family_arm_m3_Hwi_swiRestoreHwi__C                             
1001be35  ti_sysbios_family_arm_m3_Hwi_switchFromBootStack__E                       
1001c0ad  ti_sysbios_family_arm_m3_TaskSupport_Module__startupDone__S               
1001c86d  ti_sysbios_family_arm_m3_TaskSupport_buildTaskStack                       
1001bf9d  ti_sysbios_family_arm_m3_TaskSupport_getStackAlignment__E                 
1001c959  ti_sysbios_family_arm_m3_TaskSupport_glue                                 
00001224  ti_sysbios_family_arm_m3_TaskSupport_stackAlignment__C                    
1001b155  ti_sysbios_family_arm_m3_TaskSupport_start__E                             
1001c969  ti_sysbios_family_arm_m3_TaskSupport_swap__E                              
1001c921  ti_sysbios_family_xxx_Hwi_switchAndRunFunc                                
1001b999  ti_sysbios_gates_GateHwi_Handle__label__S                                 
1001b153  ti_sysbios_gates_GateHwi_Instance_init__E                                 
00001028  ti_sysbios_gates_GateHwi_Module__FXNS__C                                  
00001286  ti_sysbios_gates_GateHwi_Module__id__C                                    
20001b28  ti_sysbios_gates_GateHwi_Module__root__V                                  
00001090  ti_sysbios_gates_GateHwi_Object__DESC__C                                  
1001cad8  ti_sysbios_gates_GateHwi_Object__PARAMS__C                                
1001b869  ti_sysbios_gates_GateHwi_Object__create__S                                
1001b9b9  ti_sysbios_gates_GateHwi_Object__delete__S                                
1001bfa9  ti_sysbios_gates_GateHwi_enter__E                                         
1001c067  ti_sysbios_gates_GateHwi_leave__E                                         
1001c0b1  ti_sysbios_gates_GateHwi_query__E                                         
1001b9d9  ti_sysbios_gates_GateMutex_Handle__label__S                               
1001cb68  ti_sysbios_gates_GateMutex_Instance_State_sem__O                          
1001bec1  ti_sysbios_gates_GateMutex_Instance_finalize__E                           
1001bc71  ti_sysbios_gates_GateMutex_Instance_init__E                               
0000104c  ti_sysbios_gates_GateMutex_Module__FXNS__C                                
00001288  ti_sysbios_gates_GateMutex_Module__id__C                                  
20001b30  ti_sysbios_gates_GateMutex_Module__root__V                                
000010b0  ti_sysbios_gates_GateMutex_Object__DESC__C                                
1001caf0  ti_sysbios_gates_GateMutex_Object__PARAMS__C                              
1001b36d  ti_sysbios_gates_GateMutex_Object__create__S                              
1001b88d  ti_sysbios_gates_GateMutex_Object__delete__S                              
1001b9f9  ti_sysbios_gates_GateMutex_Object__destruct__S                            
200018ec  ti_sysbios_gates_GateMutex_Object__table__V                               
1001bfb5  ti_sysbios_gates_GateMutex_Params__init__S                                
1001b541  ti_sysbios_gates_GateMutex_construct                                      
1001b39d  ti_sysbios_gates_GateMutex_create                                         
1001c0b5  ti_sysbios_gates_GateMutex_delete                                         
1001c0b9  ti_sysbios_gates_GateMutex_destruct                                       
1001b3cd  ti_sysbios_gates_GateMutex_enter__E                                       
1001bdd9  ti_sysbios_gates_GateMutex_leave__E                                       
1001c0bd  ti_sysbios_gates_GateMutex_query__E                                       
1001b939  ti_sysbios_hal_Hwi_HwiProxy_Module__startupDone__S                        
1001b939  ti_sysbios_hal_Hwi_HwiProxy_Module__startupDone__S__mangled__             
1001bed1  ti_sysbios_hal_Hwi_HwiProxy_Object__create__S                             
1001b959  ti_sysbios_hal_Hwi_HwiProxy_Object__delete__S                             
1001bf79  ti_sysbios_hal_Hwi_HwiProxy_Params__init__S                               
1001bf79  ti_sysbios_hal_Hwi_HwiProxy_Params__init__S__mangled__                    
0000bdb9  ti_sysbios_hal_Hwi_HwiProxy_clearInterrupt__E                             
1001bc8d  ti_sysbios_hal_Hwi_HwiProxy_create                                        
1001c0c1  ti_sysbios_hal_Hwi_HwiProxy_delete                                        
1001af45  ti_sysbios_hal_Hwi_HwiProxy_disableInterrupt__E                           
1001af45  ti_sysbios_hal_Hwi_HwiProxy_disableInterrupt__E__mangled__                
1001af89  ti_sysbios_hal_Hwi_HwiProxy_enableInterrupt__E                            
1001af89  ti_sysbios_hal_Hwi_HwiProxy_enableInterrupt__E__mangled__                 
1001b099  ti_sysbios_hal_Hwi_HwiProxy_getStackInfo__E                               
1001b099  ti_sysbios_hal_Hwi_HwiProxy_getStackInfo__E__mangled__                    
0000c3d1  ti_sysbios_hal_Hwi_HwiProxy_post__E                                       
1001c04b  ti_sysbios_hal_Hwi_HwiProxy_startup__E                                    
1001c04b  ti_sysbios_hal_Hwi_HwiProxy_startup__E__mangled__                         
1001be35  ti_sysbios_hal_Hwi_HwiProxy_switchFromBootStack__E                        
1001be35  ti_sysbios_hal_Hwi_HwiProxy_switchFromBootStack__E__mangled__             
1001c039  ti_sysbios_hal_Hwi_Instance_finalize__E                                   
1001b81d  ti_sysbios_hal_Hwi_Instance_init__E                                       
20001b38  ti_sysbios_hal_Hwi_Module__root__V                                        
1001be5d  ti_sysbios_hal_Hwi_Module_startup__E                                      
000010d0  ti_sysbios_hal_Hwi_Object__DESC__C                                        
1001ca18  ti_sysbios_hal_Hwi_Object__PARAMS__C                                      
1001ba19  ti_sysbios_hal_Hwi_Object__delete__S                                      
0000bdb9  ti_sysbios_hal_Hwi_clearInterrupt__E                                      
1001a881  ti_sysbios_hal_Hwi_create                                                 
1001c0c5  ti_sysbios_hal_Hwi_delete                                                 
1001af45  ti_sysbios_hal_Hwi_disableInterrupt__E                                    
1001af45  ti_sysbios_hal_Hwi_disableInterrupt__E                                    
1001af89  ti_sysbios_hal_Hwi_enableInterrupt__E                                     
1001af89  ti_sysbios_hal_Hwi_enableInterrupt__E                                     
1001b099  ti_sysbios_hal_Hwi_getStackInfo__E                                        
1001b099  ti_sysbios_hal_Hwi_getStackInfo__E                                        
1001b56d  ti_sysbios_hal_Hwi_initStack                                              
0000c3d1  ti_sysbios_hal_Hwi_post__E                                                
1001c04b  ti_sysbios_hal_Hwi_startup__E                                             
1001c04b  ti_sysbios_hal_Hwi_startup__E                                             
1001be35  ti_sysbios_hal_Hwi_switchFromBootStack__E                                 
1001be35  ti_sysbios_hal_Hwi_switchFromBootStack__E                                 
0000d2a8  ti_sysbios_hal_SecondsClock_Module_State_clock__O                         
200018b0  ti_sysbios_hal_SecondsClock_Module__state__V                              
000083f1  ti_sysbios_hal_SecondsClock_Module_startup__E                             
0000a411  ti_sysbios_hal_SecondsClock_increment__I                                  
0000ad01  ti_sysbios_hal_Seconds_SecondsProxy_get__E                                
0000b901  ti_sysbios_hal_Seconds_SecondsProxy_set__E                                
0000ad01  ti_sysbios_hal_Seconds_get__E                                             
0000b901  ti_sysbios_hal_Seconds_set__E                                             
0000bff1  ti_sysbios_heaps_HeapCallback_Instance_init__E                            
0000cef8  ti_sysbios_heaps_HeapCallback_Module__FXNS__C                             
20001b40  ti_sysbios_heaps_HeapCallback_Module__root__V                             
0000a8dd  ti_sysbios_heaps_HeapCallback_Module_startup__E                           
0000cff8  ti_sysbios_heaps_HeapCallback_Object__DESC__C                             
0000d050  ti_sysbios_heaps_HeapCallback_Object__PARAMS__C                           
0000d2ac  ti_sysbios_heaps_HeapCallback_Object__count__C                            
0000b229  ti_sysbios_heaps_HeapCallback_Object__create__S                           
0000c21d  ti_sysbios_heaps_HeapCallback_Object__get__S                              
20001ad8  ti_sysbios_heaps_HeapCallback_Object__table__V                            
0000d2b0  ti_sysbios_heaps_HeapCallback_allocInstFxn__C                             
0000c3e1  ti_sysbios_heaps_HeapCallback_alloc__E                                    
0000d2b4  ti_sysbios_heaps_HeapCallback_createInstFxn__C                            
0000c793  ti_sysbios_heaps_HeapCallback_defaultCreate                               
0000d2b8  ti_sysbios_heaps_HeapCallback_freeInstFxn__C                              
0000c3f1  ti_sysbios_heaps_HeapCallback_free__E                                     
0000d2bc  ti_sysbios_heaps_HeapCallback_getStatsInstFxn__C                          
0000c401  ti_sysbios_heaps_HeapCallback_getStats__E                                 
0000d2c0  ti_sysbios_heaps_HeapCallback_initInstFxn__C                              
0000d2c4  ti_sysbios_heaps_HeapCallback_isBlockingInstFxn__C                        
0000c411  ti_sysbios_heaps_HeapCallback_isBlocking__E                               
00001228  ti_sysbios_heaps_HeapMem_E_memory__C                                      
1001ba39  ti_sysbios_heaps_HeapMem_Handle__label__S                                 
1001b18d  ti_sysbios_heaps_HeapMem_Instance_init__E                                 
1001b9d9  ti_sysbios_heaps_HeapMem_Module_GateProxy_Handle__label__S                
1001b9d9  ti_sysbios_heaps_HeapMem_Module_GateProxy_Handle__label__S__mangled__     
1001b88d  ti_sysbios_heaps_HeapMem_Module_GateProxy_Object__delete__S               
1001bfb5  ti_sysbios_heaps_HeapMem_Module_GateProxy_Params__init__S                 
1001bfb5  ti_sysbios_heaps_HeapMem_Module_GateProxy_Params__init__S__mangled__      
1001c0c9  ti_sysbios_heaps_HeapMem_Module_GateProxy_enter__E                        
1001c0cd  ti_sysbios_heaps_HeapMem_Module_GateProxy_leave__E                        
1001c0bd  ti_sysbios_heaps_HeapMem_Module_GateProxy_query__E                        
1001c0bd  ti_sysbios_heaps_HeapMem_Module_GateProxy_query__E__mangled__             
00001000  ti_sysbios_heaps_HeapMem_Module__FXNS__C                                  
0000122c  ti_sysbios_heaps_HeapMem_Module__gateObj__C                               
0000128a  ti_sysbios_heaps_HeapMem_Module__id__C                                    
20001b48  ti_sysbios_heaps_HeapMem_Module__root__V                                  
000010f0  ti_sysbios_heaps_HeapMem_Object__DESC__C                                  
1001ca6c  ti_sysbios_heaps_HeapMem_Object__PARAMS__C                                
00001230  ti_sysbios_heaps_HeapMem_Object__count__C                                 
1001b599  ti_sysbios_heaps_HeapMem_Object__create__S                                
1001ba59  ti_sysbios_heaps_HeapMem_Object__delete__S                                
1001b5c5  ti_sysbios_heaps_HeapMem_Object__get__S                                   
00001234  ti_sysbios_heaps_HeapMem_Object__table__C                                 
1001a615  ti_sysbios_heaps_HeapMem_allocUnprotected__E                              
1001ab15  ti_sysbios_heaps_HeapMem_alloc__E                                         
1001ab6d  ti_sysbios_heaps_HeapMem_freeUnprotected__E                               
1001b3fd  ti_sysbios_heaps_HeapMem_free__E                                          
1001aefd  ti_sysbios_heaps_HeapMem_getStats__E                                      
1001b235  ti_sysbios_heaps_HeapMem_init__I                                          
1001c06d  ti_sysbios_heaps_HeapMem_isBlocking__E                                    
00001238  ti_sysbios_heaps_HeapMem_reqAlign__C                                      
1001bf41  ti_sysbios_heaps_HeapMem_restore__E                                       
1001be09  ti_sysbios_knl_Clock_Instance_finalize__E                                 
1001b1c5  ti_sysbios_knl_Clock_Instance_init__E                                     
1001cb6c  ti_sysbios_knl_Clock_Module_State_clockQ__O                               
0000d2ea  ti_sysbios_knl_Clock_Module__id__C                                        
20001b50  ti_sysbios_knl_Clock_Module__root__V                                      
0000bdd5  ti_sysbios_knl_Clock_Module__startupDone__S                               
20000178  ti_sysbios_knl_Clock_Module__state__V                                     
1001ba79  ti_sysbios_knl_Clock_Module_startup__E                                    
00001110  ti_sysbios_knl_Clock_Object__DESC__C                                      
1001ca90  ti_sysbios_knl_Clock_Object__PARAMS__C                                    
1001b8b1  ti_sysbios_knl_Clock_Object__delete__S                                    
1001ba99  ti_sysbios_knl_Clock_Object__destruct__S                                  
20001a4c  ti_sysbios_knl_Clock_Object__table__V                                     
1001bfc1  ti_sysbios_knl_Clock_Params__init__S                                      
1001b8f9  ti_sysbios_knl_Clock_TimerProxy_Module__startupDone__S                    
1001b8f9  ti_sysbios_knl_Clock_TimerProxy_Module__startupDone__S__mangled__         
1001bee1  ti_sysbios_knl_Clock_TimerProxy_getCurrentTick__E                         
1001c0d1  ti_sysbios_knl_Clock_TimerProxy_getExpiredTicks__E                        
0000c797  ti_sysbios_knl_Clock_TimerProxy_getFreq__E                                
1001bef1  ti_sysbios_knl_Clock_TimerProxy_getMaxTicks__E                            
1001c0d5  ti_sysbios_knl_Clock_TimerProxy_getPeriod__E                              
1001bf01  ti_sysbios_knl_Clock_TimerProxy_setNextTick__E                            
1001b4e9  ti_sysbios_knl_Clock_TimerProxy_startup__E                                
1001b4e9  ti_sysbios_knl_Clock_TimerProxy_startup__E__mangled__                     
1001b7a5  ti_sysbios_knl_Clock_addI__E                                              
1001b269  ti_sysbios_knl_Clock_construct                                            
1001b1fd  ti_sysbios_knl_Clock_create                                               
1001c0d9  ti_sysbios_knl_Clock_delete                                               
1001c0dd  ti_sysbios_knl_Clock_destruct                                             
0000c231  ti_sysbios_knl_Clock_doTick__I                                            
0000b551  ti_sysbios_knl_Clock_getTicksUntilInterrupt__E                            
1001b29d  ti_sysbios_knl_Clock_getTicks__E                                          
0000b5fd  ti_sysbios_knl_Clock_getTimeout__E                                        
1001bfcd  ti_sysbios_knl_Clock_getTimerHandle__E                                    
0000c79b  ti_sysbios_knl_Clock_isActive__E                                          
1001b843  ti_sysbios_knl_Clock_logTick__E                                           
1001c0e1  ti_sysbios_knl_Clock_removeI__E                                           
1001bca9  ti_sysbios_knl_Clock_scheduleNextTick__E                                  
0000c79f  ti_sysbios_knl_Clock_setPeriod__E                                         
1001c0e5  ti_sysbios_knl_Clock_setTimeout__E                                        
1001a1f1  ti_sysbios_knl_Clock_startI__E                                            
1001be1f  ti_sysbios_knl_Clock_start__E                                             
1001bab9  ti_sysbios_knl_Clock_stop__E                                              
0000128e  ti_sysbios_knl_Clock_tickMode__C                                          
0000d2c8  ti_sysbios_knl_Clock_tickPeriod__C                                        
0000123c  ti_sysbios_knl_Clock_triggerClock__C                                      
1001bdbf  ti_sysbios_knl_Clock_triggerFunc__I                                       
1001a2f1  ti_sysbios_knl_Clock_walkQueueDynamic__E                                  
00007a85  ti_sysbios_knl_Clock_workFuncDynamic__E                                   
1001a369  ti_sysbios_knl_Clock_workFunc__E                                          
1001cb70  ti_sysbios_knl_Event_Instance_State_pendQ__O                              
1001be49  ti_sysbios_knl_Event_Instance_init__E                                     
20001b58  ti_sysbios_knl_Event_Module__root__V                                      
00001130  ti_sysbios_knl_Event_Object__DESC__C                                      
1001cb08  ti_sysbios_knl_Event_Object__PARAMS__C                                    
1001bad9  ti_sysbios_knl_Event_Object__delete__S                                    
1001bcc5  ti_sysbios_knl_Event_Object__destruct__S                                  
1001bfd9  ti_sysbios_knl_Event_Params__init__S                                      
1001baf9  ti_sysbios_knl_Event_checkEvents__I                                       
1001b5f1  ti_sysbios_knl_Event_construct                                            
1001b42d  ti_sysbios_knl_Event_create                                               
1001c0e9  ti_sysbios_knl_Event_delete                                               
1001c0ed  ti_sysbios_knl_Event_destruct                                             
1001b61d  ti_sysbios_knl_Event_pendTimeout__I                                       
10019bf9  ti_sysbios_knl_Event_pend__E                                              
1001a455  ti_sysbios_knl_Event_post__E                                              
1001be6f  ti_sysbios_knl_Event_sync__E                                              
0000d2cc  ti_sysbios_knl_Idle_funcList__A                                           
000011f0  ti_sysbios_knl_Idle_funcList__C                                           
1001c053  ti_sysbios_knl_Idle_loop__E                                               
1001bb19  ti_sysbios_knl_Idle_run__E                                                
1001cb74  ti_sysbios_knl_Mailbox_Instance_State_dataQue__O                          
1001cb78  ti_sysbios_knl_Mailbox_Instance_State_dataSem__O                          
1001cb7c  ti_sysbios_knl_Mailbox_Instance_State_freeQue__O                          
1001cb80  ti_sysbios_knl_Mailbox_Instance_State_freeSem__O                          
1001a4c5  ti_sysbios_knl_Mailbox_Instance_finalize__E                               
10019dad  ti_sysbios_knl_Mailbox_Instance_init__E                                   
20001b60  ti_sysbios_knl_Mailbox_Module__root__V                                    
1001afcd  ti_sysbios_knl_Mailbox_Module_startup__E                                  
00001150  ti_sysbios_knl_Mailbox_Object__DESC__C                                    
1001c9b4  ti_sysbios_knl_Mailbox_Object__PARAMS__C                                  
00001240  ti_sysbios_knl_Mailbox_Object__count__C                                   
1001bb39  ti_sysbios_knl_Mailbox_Object__delete__S                                  
1001bce1  ti_sysbios_knl_Mailbox_Object__destruct__S                                
1001b649  ti_sysbios_knl_Mailbox_Object__get__S                                     
00001244  ti_sysbios_knl_Mailbox_Object__table__C                                   
1001bfe5  ti_sysbios_knl_Mailbox_Params__init__S                                    
1001abc5  ti_sysbios_knl_Mailbox_construct                                          
1001a945  ti_sysbios_knl_Mailbox_create                                             
1001c0f1  ti_sysbios_knl_Mailbox_delete                                             
1001c0f5  ti_sysbios_knl_Mailbox_destruct                                           
00001248  ti_sysbios_knl_Mailbox_maxTypeAlign__C                                    
1001a535  ti_sysbios_knl_Mailbox_pend__E                                            
1001b675  ti_sysbios_knl_Mailbox_postInit__I                                        
1001a0ed  ti_sysbios_knl_Mailbox_post__E                                            
1001c073  ti_sysbios_knl_Queue_Instance_init__E                                     
20001b68  ti_sysbios_knl_Queue_Module__root__V                                      
00001170  ti_sysbios_knl_Queue_Object__DESC__C                                      
1001cb20  ti_sysbios_knl_Queue_Object__PARAMS__C                                    
0000124c  ti_sysbios_knl_Queue_Object__count__C                                     
1001bb59  ti_sysbios_knl_Queue_Object__delete__S                                    
1001bcfd  ti_sysbios_knl_Queue_Object__destruct__S                                  
1001bb79  ti_sysbios_knl_Queue_Object__get__S                                       
00001250  ti_sysbios_knl_Queue_Object__table__C                                     
1001b6a1  ti_sysbios_knl_Queue_construct                                            
1001b6cd  ti_sysbios_knl_Queue_create                                               
1001c0f9  ti_sysbios_knl_Queue_delete                                               
1001bff1  ti_sysbios_knl_Queue_dequeue__E                                           
1001c0fd  ti_sysbios_knl_Queue_destruct                                             
1001c079  ti_sysbios_knl_Queue_elemClear__E                                         
1001bf4f  ti_sysbios_knl_Queue_empty__E                                             
1001bffd  ti_sysbios_knl_Queue_enqueue__E                                           
1001bd19  ti_sysbios_knl_Queue_get__E                                               
1001c101  ti_sysbios_knl_Queue_head__E                                              
1001c105  ti_sysbios_knl_Queue_next__E                                              
1001bd35  ti_sysbios_knl_Queue_put__E                                               
1001bf5d  ti_sysbios_knl_Queue_remove__E                                            
1001cb84  ti_sysbios_knl_Semaphore_Instance_State_pendQ__O                          
1001b7cd  ti_sysbios_knl_Semaphore_Instance_finalize__E                             
1001a685  ti_sysbios_knl_Semaphore_Instance_init__E                                 
20001b70  ti_sysbios_knl_Semaphore_Module__root__V                                  
00001190  ti_sysbios_knl_Semaphore_Object__DESC__C                                  
1001cab4  ti_sysbios_knl_Semaphore_Object__PARAMS__C                                
1001b8d5  ti_sysbios_knl_Semaphore_Object__delete__S                                
1001bb99  ti_sysbios_knl_Semaphore_Object__destruct__S                              
1001c009  ti_sysbios_knl_Semaphore_Params__init__S                                  
1001b45d  ti_sysbios_knl_Semaphore_construct                                        
1001b2d1  ti_sysbios_knl_Semaphore_create                                           
1001c109  ti_sysbios_knl_Semaphore_delete                                           
1001c10d  ti_sysbios_knl_Semaphore_destruct                                         
00001254  ti_sysbios_knl_Semaphore_eventPost__C                                     
00001258  ti_sysbios_knl_Semaphore_eventSync__C                                     
1001b6f9  ti_sysbios_knl_Semaphore_pendTimeout__I                                   
10019b05  ti_sysbios_knl_Semaphore_pend__E                                          
1001a3e1  ti_sysbios_knl_Semaphore_post__E                                          
1001bf77  ti_sysbios_knl_Swi_Instance_finalize__E                                   
1001a9a5  ti_sysbios_knl_Swi_Instance_init__E                                       
20001954  ti_sysbios_knl_Swi_Module_State_0_readyQ__A                               
20001b78  ti_sysbios_knl_Swi_Module__root__V                                        
200001c8  ti_sysbios_knl_Swi_Module__state__V                                       
1001c07f  ti_sysbios_knl_Swi_Module_startup__E                                      
000011b0  ti_sysbios_knl_Swi_Object__DESC__C                                        
1001ca44  ti_sysbios_knl_Swi_Object__PARAMS__C                                      
0000125c  ti_sysbios_knl_Swi_Object__count__C                                       
1001bbb9  ti_sysbios_knl_Swi_Object__delete__S                                      
1001bd51  ti_sysbios_knl_Swi_Object__destruct__S                                    
1001b725  ti_sysbios_knl_Swi_Object__get__S                                         
00001260  ti_sysbios_knl_Swi_Object__table__C                                       
20001984  ti_sysbios_knl_Swi_Object__table__V                                       
1001c015  ti_sysbios_knl_Swi_Params__init__S                                        
1001ad79  ti_sysbios_knl_Swi_construct                                              
0000bdf1  ti_sysbios_knl_Swi_construct2__E                                          
1001ac1d  ti_sysbios_knl_Swi_create                                                 
1001c111  ti_sysbios_knl_Swi_delete                                                 
1001c115  ti_sysbios_knl_Swi_destruct                                               
1001bf11  ti_sysbios_knl_Swi_disable__E                                             
1001bf21  ti_sysbios_knl_Swi_enabled__E                                             
0000c5b5  ti_sysbios_knl_Swi_getTrigger__E                                          
00001264  ti_sysbios_knl_Swi_numPriorities__C                                       
0000c009  ti_sysbios_knl_Swi_or__E                                                  
1001c119  ti_sysbios_knl_Swi_postInit__I                                            
1001b011  ti_sysbios_knl_Swi_post__E                                                
1001a6ed  ti_sysbios_knl_Swi_restoreHwi__E                                          
1001b305  ti_sysbios_knl_Swi_restore__E                                             
1001adc9  ti_sysbios_knl_Swi_runLoop__I                                             
1001ac75  ti_sysbios_knl_Swi_run__I                                                 
1001ad25  ti_sysbios_knl_Swi_schedule__I                                            
0000afb1  ti_sysbios_knl_Swi_setPri__E                                              
1001c085  ti_sysbios_knl_Swi_startup__E                                             
20001f50  ti_sysbios_knl_Task_Instance_State_0_stack__A                             
1001a059  ti_sysbios_knl_Task_Instance_finalize__E                                  
10019ce1  ti_sysbios_knl_Task_Instance_init__E                                      
20001ba4  ti_sysbios_knl_Task_Module_State_0_idleTask__A                            
200019b4  ti_sysbios_knl_Task_Module_State_0_readyQ__A                              
1001cb88  ti_sysbios_knl_Task_Module_State_inactiveQ__O                             
20001b80  ti_sysbios_knl_Task_Module__root__V                                       
20000100  ti_sysbios_knl_Task_Module__state__V                                      
1001aa05  ti_sysbios_knl_Task_Module_startup__E                                     
000011d0  ti_sysbios_knl_Task_Object__DESC__C                                       
1001c978  ti_sysbios_knl_Task_Object__PARAMS__C                                     
00001268  ti_sysbios_knl_Task_Object__count__C                                      
1001bbd9  ti_sysbios_knl_Task_Object__delete__S                                     
1001bd6d  ti_sysbios_knl_Task_Object__destruct__S                                   
1001bbf9  ti_sysbios_knl_Task_Object__get__S                                        
0000126c  ti_sysbios_knl_Task_Object__table__C                                      
2000181c  ti_sysbios_knl_Task_Object__table__V                                      
1001c021  ti_sysbios_knl_Task_Params__init__S                                       
1001c0ad  ti_sysbios_knl_Task_SupportProxy_Module__startupDone__S                   
1001c0ad  ti_sysbios_knl_Task_SupportProxy_Module__startupDone__S__mangled__        
1001bf9d  ti_sysbios_knl_Task_SupportProxy_getStackAlignment__E                     
1001bf9d  ti_sysbios_knl_Task_SupportProxy_getStackAlignment__E__mangled__          
1001b155  ti_sysbios_knl_Task_SupportProxy_start__E                                 
1001b155  ti_sysbios_knl_Task_SupportProxy_start__E__mangled__                      
1001c969  ti_sysbios_knl_Task_SupportProxy_swap__E                                  
1001c969  ti_sysbios_knl_Task_SupportProxy_swap__E__mangled__                       
00001270  ti_sysbios_knl_Task_allBlockedFunc__C                                     
1001b055  ti_sysbios_knl_Task_allBlockedFunction__I                                 
1001b339  ti_sysbios_knl_Task_blockI__E                                             
1001ae19  ti_sysbios_knl_Task_construct                                             
1001accd  ti_sysbios_knl_Task_create                                                
00001274  ti_sysbios_knl_Task_defaultStackHeap__C                                   
00001278  ti_sysbios_knl_Task_defaultStackSize__C                                   
1001c11d  ti_sysbios_knl_Task_delete                                                
1001c121  ti_sysbios_knl_Task_destruct                                              
1001bf31  ti_sysbios_knl_Task_disable__E                                            
1001c08b  ti_sysbios_knl_Task_enable__E                                             
1001bd89  ti_sysbios_knl_Task_enter__I                                              
1001b119  ti_sysbios_knl_Task_exit__E                                               
0000128c  ti_sysbios_knl_Task_initStackFlag__C                                      
0000127c  ti_sysbios_knl_Task_numConstructedTasks__C                                
1001a271  ti_sysbios_knl_Task_postInit__I                                           
1001b48d  ti_sysbios_knl_Task_processVitalTaskFlag__I                               
1001bc19  ti_sysbios_knl_Task_restoreHwi__E                                         
1001b7f5  ti_sysbios_knl_Task_restore__E                                            
1001ae69  ti_sysbios_knl_Task_schedule__I                                           
1001c02d  ti_sysbios_knl_Task_self__E                                               
1001bda5  ti_sysbios_knl_Task_sleepTimeout__I                                       
1001a5a5  ti_sysbios_knl_Task_sleep__E                                              
1001aa61  ti_sysbios_knl_Task_startCore__E                                          
1001c125  ti_sysbios_knl_Task_startup__E                                            
1001c971  ti_sysbios_knl_Task_swapReturn                                            
1001b751  ti_sysbios_knl_Task_unblockI__E                                           
1001bdf1  ti_sysbios_knl_Task_unblock__E                                            
1001b0d9  ti_sysbios_knl_Task_yield__E                                              
00001304  ti_sysbios_rom_ROM_ti_sysbios_family_arm_cc26xx_Timer_getCount64__E       
00001308  ti_sysbios_rom_ROM_ti_sysbios_family_arm_cc26xx_Timer_getCurrentTick__E   
0000130c  ti_sysbios_rom_ROM_ti_sysbios_family_arm_cc26xx_Timer_getMaxTicks__E      
00001310  ti_sysbios_rom_ROM_ti_sysbios_family_arm_cc26xx_Timer_initDevice__I       
00001314  ti_sysbios_rom_ROM_ti_sysbios_family_arm_cc26xx_Timer_setNextTick__E      
00001318  ti_sysbios_rom_ROM_ti_sysbios_family_arm_cc26xx_Timer_setThreshold__I     
0000131c  ti_sysbios_rom_ROM_ti_sysbios_family_arm_cc26xx_Timer_start__E            
00001320  ti_sysbios_rom_ROM_ti_sysbios_family_arm_cc26xx_TimestampProvider_get32__E
00001324  ti_sysbios_rom_ROM_xdc_runtime_Startup_getState__I                        
00001328  ti_sysbios_rom_ROM_xdc_runtime_System_SupportProxy_abort__E               
0000132c  ti_sysbios_rom_ROM_xdc_runtime_System_SupportProxy_exit__E                
10019b00  ti_sysbios_rom_cortexm_cc26xx_r2_CC26xx_REVISION__C                       
0000a4db  ti_sysbios_rom_cortexm_cc26xx_r2_CC26xx_badRomRevision__E                 
0000c021  ti_sysbios_rom_cortexm_cc26xx_r2_CC26xx_checkRevision__E                  
20000554  timeShutdown                                                              
2000287c  trngCC26XXObjects                                                         
0000d208  trngDriverTable                                                           
0000cf20  uartCC26XXHWAttrs                                                         
20002318  uartCC26XXObjects                                                         
200027e4  uartCC26XXRingBuffer                                                      
0000d27c  udmaHWAttrs                                                               
20002804  udmaObjects                                                               
20001aa8  user0Cfg                                                                  
200015a9  valG                                                                      
200015a7  valR                                                                      
200015ab  valV                                                                      
0000ce70  validRangeUUID                                                            
2000163c  vibroBP                                                                   
00008475  writeFlashPg                                                              
000012a0  xdc_runtime_Assert_E_assertFailed__C                                      
1001c465  xdc_runtime_Assert_raise__I                                               
1001c5b9  xdc_runtime_Core_assignLabel__I                                           
1001c4ad  xdc_runtime_Core_assignParams__I                                          
1001c4f5  xdc_runtime_Core_constructObject__I                                       
1001c2c9  xdc_runtime_Core_createObject__I                                          
1001c3b5  xdc_runtime_Core_deleteObject__I                                          
1001c6a5  xdc_runtime_Core_destructObject__I                                        
000012a4  xdc_runtime_Error_E_memory__C                                             
20001a6c  xdc_runtime_Error_IgnoreBlock                                             
20000204  xdc_runtime_Error_Module__state__V                                        
1001c6bd  xdc_runtime_Error_check__E                                                
0000c039  xdc_runtime_Error_init__E                                                 
000012f8  xdc_runtime_Error_maxDepth__C                                             
000012a8  xdc_runtime_Error_policyFxn__C                                            
1001c413  xdc_runtime_Error_policySpin__E                                           
00001300  xdc_runtime_Error_policy__C                                               
000012ac  xdc_runtime_Error_raiseHook__C                                            
1001c66d  xdc_runtime_Error_raiseX__E                                               
1001c795  xdc_runtime_Gate_enterSystem__E                                           
1001c789  xdc_runtime_Gate_leaveSystem__E                                           
000012b0  xdc_runtime_IGateProvider_Interface__BASE__C                              
000012b4  xdc_runtime_IHeap_Interface__BASE__C                                      
000012b8  xdc_runtime_IModule_Interface__BASE__C                                    
1001b999  xdc_runtime_Main_Module_GateProxy_Handle__label__S                        
1001c0b1  xdc_runtime_Main_Module_GateProxy_query__E                                
1001ba39  xdc_runtime_Memory_HeapProxy_Handle__label__S                             
1001ba39  xdc_runtime_Memory_HeapProxy_Handle__label__S__mangled__                  
1001ba59  xdc_runtime_Memory_HeapProxy_Object__delete__S                            
1001c775  xdc_runtime_Memory_HeapProxy_alloc__E                                     
1001c77f  xdc_runtime_Memory_HeapProxy_free__E                                      
000012fa  xdc_runtime_Memory_Module__id__C                                          
20000200  xdc_runtime_Memory_Module__state__V                                       
1001c349  xdc_runtime_Memory_alloc__E                                               
1001c751  xdc_runtime_Memory_calloc__E                                              
000012bc  xdc_runtime_Memory_defaultHeapInstance__C                                 
1001c705  xdc_runtime_Memory_free__E                                                
1001c75d  xdc_runtime_Memory_getMaxDefaultTypeAlign__E                              
1001c689  xdc_runtime_Memory_valloc__E                                              
20001b88  xdc_runtime_Registry_Module__state__V                                     
0000bb99  xdc_runtime_Registry_findById__E                                          
200001f0  xdc_runtime_Startup_Module__state__V                                      
00000001  xdc_runtime_Startup__EXECFXN__C                                           
00000001  xdc_runtime_Startup__RESETFXN__C                                          
000012c0  xdc_runtime_Startup_execImpl__C                                           
1001c415  xdc_runtime_Startup_exec__E                                               
0000c28d  xdc_runtime_Startup_exec__I                                               
0000d214  xdc_runtime_Startup_firstFxns__A                                          
00001290  xdc_runtime_Startup_firstFxns__C                                          
000098fd  xdc_runtime_Startup_getState__I                                           
00001298  xdc_runtime_Startup_lastFxns__C                                           
000012c4  xdc_runtime_Startup_maxPasses__C                                          
0000c5c1  xdc_runtime_Startup_reset__I                                              
1001c769  xdc_runtime_Startup_rtsDone__E                                            
0000d114  xdc_runtime_Startup_sfxnRts__A                                            
000012c8  xdc_runtime_Startup_sfxnRts__C                                            
0000cea4  xdc_runtime_Startup_sfxnTab__A                                            
000012cc  xdc_runtime_Startup_sfxnTab__C                                            
000012d0  xdc_runtime_Startup_startModsFxn__C                                       
1001c129  xdc_runtime_Startup_startMods__I                                          
000012d4  xdc_runtime_SysCallback_abortFxn__C                                       
1001c715  xdc_runtime_SysCallback_abort__E                                          
0000ada7  xdc_runtime_SysCallback_defaultAbort                                      
0000ba17  xdc_runtime_SysCallback_defaultExit                                       
0000bc13  xdc_runtime_SysCallback_defaultPutch                                      
0000c7a3  xdc_runtime_SysCallback_defaultReady                                      
000012d8  xdc_runtime_SysCallback_exitFxn__C                                        
1001c725  xdc_runtime_SysCallback_exit__E                                           
0000d2d0  xdc_runtime_SysCallback_putchFxn__C                                       
0000c431  xdc_runtime_SysCallback_putch__E                                          
0000d2d4  xdc_runtime_SysCallback_readyFxn__C                                       
0000c441  xdc_runtime_SysCallback_ready__E                                          
1001b999  xdc_runtime_System_Module_GateProxy_Handle__label__S                      
1001b999  xdc_runtime_System_Module_GateProxy_Handle__label__S__mangled__           
1001b9b9  xdc_runtime_System_Module_GateProxy_Object__delete__S                     
1001c799  xdc_runtime_System_Module_GateProxy_enter__E                              
1001c79d  xdc_runtime_System_Module_GateProxy_leave__E                              
1001c0b1  xdc_runtime_System_Module_GateProxy_query__E                              
1001c0b1  xdc_runtime_System_Module_GateProxy_query__E__mangled__                   
200001f8  xdc_runtime_System_Module__state__V                                       
1001c78f  xdc_runtime_System_Module_startup__E                                      
1001c715  xdc_runtime_System_SupportProxy_abort__E                                  
1001c725  xdc_runtime_System_SupportProxy_exit__E                                   
0000c431  xdc_runtime_System_SupportProxy_putch__E                                  
0000c441  xdc_runtime_System_SupportProxy_ready__E                                  
000012dc  xdc_runtime_System_abortFxn__C                                            
1001c7a1  xdc_runtime_System_abortSpin__E                                           
0000c787  xdc_runtime_System_abortStd__E                                            
1001c64d  xdc_runtime_System_abort__E                                               
1001c581  xdc_runtime_System_atexit__E                                              
00002409  xdc_runtime_System_doPrint__I                                             
000012e0  xdc_runtime_System_exitFxn__C                                             
1001c7a3  xdc_runtime_System_exitSpin__E                                            
1001c6d5  xdc_runtime_System_exit__E                                                
0000d2d8  xdc_runtime_System_extendFxn__C                                           
00008c15  xdc_runtime_System_formatNum__I                                           
000012e4  xdc_runtime_System_maxAtexitHandlers__C                                   
00005db9  xdc_runtime_System_printfExtend__I                                        
1001c5ed  xdc_runtime_System_processAtExit__E                                       
0000b627  xdc_runtime_System_putchar__I                                             
0000c451  xdc_runtime_System_vsnprintf__E                                           
000012fc  xdc_runtime_Text_charCnt__C                                               
0000cf6f  xdc_runtime_Text_charTab__A                                               
000012e8  xdc_runtime_Text_charTab__C                                               
1001c621  xdc_runtime_Text_cordText__E                                              
000012fe  xdc_runtime_Text_isLoaded__C                                              
000012ec  xdc_runtime_Text_nameEmpty__C                                             
000012f0  xdc_runtime_Text_nameStatic__C                                            
000012f4  xdc_runtime_Text_nameUnknown__C                                           
0000b57d  xdc_runtime_Text_printVisFxn__I                                           
000095b9  xdc_runtime_Text_putLab__E                                                
00007b1d  xdc_runtime_Text_putMod__E                                                
000071d5  xdc_runtime_Text_putSite__E                                               
0000d2ec  xdc_runtime_Text_registryModsLastId__C                                    
1001c6ed  xdc_runtime_Text_ropeText__E                                              
0000d2ee  xdc_runtime_Text_unnamedModsLastId__C                                     
0000d2dc  xdc_runtime_Text_visitRopeFxn__C                                          
0000c6b9  xdc_runtime_Text_visitRope__I                                             
0000a455  xdc_runtime_Text_xprintf__I                                               
1001c735  xdc_runtime_Timestamp_SupportProxy_get32__E                               
0000c4c3  xdc_runtime_Timestamp_SupportProxy_get32__E__mangled__                    
1001b77d  xdc_runtime_Timestamp_SupportProxy_get64__E                               
1001b77d  xdc_runtime_Timestamp_SupportProxy_get64__E__mangled__                    
1001bf6b  xdc_runtime_Timestamp_SupportProxy_getFreq__E                             
1001bf6b  xdc_runtime_Timestamp_SupportProxy_getFreq__E__mangled__                  
1001c735  xdc_runtime_Timestamp_get32__E                                            
1001c735  xdc_runtime_Timestamp_get32__E                                            
1001b77d  xdc_runtime_Timestamp_get64__E                                            
1001b77d  xdc_runtime_Timestamp_get64__E                                            
1001bf6b  xdc_runtime_Timestamp_getFreq__E                                          
1001bf6b  xdc_runtime_Timestamp_getFreq__E                                          


GLOBAL SYMBOLS: SORTED BY Symbol Address 

address   name                                                                      
-------   ----                                                                      
00000000  __ASM__                                                                   
00000000  __TI_static_base__                                                        
00000000  __UNUSED_FLASH_start__                                                    
00000000  _imageHdr                                                                 
00000001  xdc_runtime_Startup__EXECFXN__C                                           
00000001  xdc_runtime_Startup__RESETFXN__C                                          
00000057  __ISA__                                                                   
00000069  __PLAT__                                                                  
00000090  __TARG__                                                                  
000000a8  prgEntryAddr                                                              
000000a8  ti_sysbios_family_arm_m3_Hwi_resetVectors                                 
000000b5  __TRDR__                                                                  
00000400  __STACK_SIZE                                                              
00000ff5  Display_doClearLines                                                      
00001000  ti_sysbios_heaps_HeapMem_Module__FXNS__C                                  
00001028  ti_sysbios_gates_GateHwi_Module__FXNS__C                                  
0000104c  ti_sysbios_gates_GateMutex_Module__FXNS__C                                
00001070  ti_sysbios_family_arm_m3_Hwi_Object__DESC__C                              
00001090  ti_sysbios_gates_GateHwi_Object__DESC__C                                  
000010b0  ti_sysbios_gates_GateMutex_Object__DESC__C                                
000010d0  ti_sysbios_hal_Hwi_Object__DESC__C                                        
000010f0  ti_sysbios_heaps_HeapMem_Object__DESC__C                                  
00001110  ti_sysbios_knl_Clock_Object__DESC__C                                      
00001130  ti_sysbios_knl_Event_Object__DESC__C                                      
00001150  ti_sysbios_knl_Mailbox_Object__DESC__C                                    
00001170  ti_sysbios_knl_Queue_Object__DESC__C                                      
00001190  ti_sysbios_knl_Semaphore_Object__DESC__C                                  
000011b0  ti_sysbios_knl_Swi_Object__DESC__C                                        
000011d0  ti_sysbios_knl_Task_Object__DESC__C                                       
000011f0  ti_sysbios_knl_Idle_funcList__C                                           
000011f8  ti_sysbios_family_arm_cc26xx_Timer_startupNeeded__C                       
000011fc  ti_sysbios_family_arm_m3_Hwi_E_alreadyDefined__C                          
00001200  ti_sysbios_family_arm_m3_Hwi_E_hwiLimitExceeded__C                        
00001204  ti_sysbios_family_arm_m3_Hwi_NUM_INTERRUPTS__C                            
00001208  ti_sysbios_family_arm_m3_Hwi_Object__count__C                             
0000120c  ti_sysbios_family_arm_m3_Hwi_Object__table__C                             
00001210  ti_sysbios_family_arm_m3_Hwi_ccr__C                                       
00001214  ti_sysbios_family_arm_m3_Hwi_excHandlerFunc__C                            
00001218  ti_sysbios_family_arm_m3_Hwi_nullIsrFunc__C                               
0000121c  ti_sysbios_family_arm_m3_Hwi_numSparseInterrupts__C                       
00001220  ti_sysbios_family_arm_m3_Hwi_priGroup__C                                  
00001224  ti_sysbios_family_arm_m3_TaskSupport_stackAlignment__C                    
00001228  ti_sysbios_heaps_HeapMem_E_memory__C                                      
0000122c  ti_sysbios_heaps_HeapMem_Module__gateObj__C                               
00001230  ti_sysbios_heaps_HeapMem_Object__count__C                                 
00001234  ti_sysbios_heaps_HeapMem_Object__table__C                                 
00001238  ti_sysbios_heaps_HeapMem_reqAlign__C                                      
0000123c  ti_sysbios_knl_Clock_triggerClock__C                                      
00001240  ti_sysbios_knl_Mailbox_Object__count__C                                   
00001244  ti_sysbios_knl_Mailbox_Object__table__C                                   
00001248  ti_sysbios_knl_Mailbox_maxTypeAlign__C                                    
0000124c  ti_sysbios_knl_Queue_Object__count__C                                     
00001250  ti_sysbios_knl_Queue_Object__table__C                                     
00001254  ti_sysbios_knl_Semaphore_eventPost__C                                     
00001258  ti_sysbios_knl_Semaphore_eventSync__C                                     
0000125c  ti_sysbios_knl_Swi_Object__count__C                                       
00001260  ti_sysbios_knl_Swi_Object__table__C                                       
00001264  ti_sysbios_knl_Swi_numPriorities__C                                       
00001268  ti_sysbios_knl_Task_Object__count__C                                      
0000126c  ti_sysbios_knl_Task_Object__table__C                                      
00001270  ti_sysbios_knl_Task_allBlockedFunc__C                                     
00001274  ti_sysbios_knl_Task_defaultStackHeap__C                                   
00001278  ti_sysbios_knl_Task_defaultStackSize__C                                   
0000127c  ti_sysbios_knl_Task_numConstructedTasks__C                                
00001280  ti_sysbios_family_arm_cc26xx_Timer_Module__id__C                          
00001282  ti_sysbios_family_arm_cc26xx_TimestampProvider_useClockTimer__C           
00001284  ti_sysbios_family_arm_m3_Hwi_Module__id__C                                
00001286  ti_sysbios_gates_GateHwi_Module__id__C                                    
00001288  ti_sysbios_gates_GateMutex_Module__id__C                                  
0000128a  ti_sysbios_heaps_HeapMem_Module__id__C                                    
0000128c  ti_sysbios_knl_Task_initStackFlag__C                                      
0000128e  ti_sysbios_knl_Clock_tickMode__C                                          
00001290  xdc_runtime_Startup_firstFxns__C                                          
00001298  xdc_runtime_Startup_lastFxns__C                                           
000012a0  xdc_runtime_Assert_E_assertFailed__C                                      
000012a4  xdc_runtime_Error_E_memory__C                                             
000012a8  xdc_runtime_Error_policyFxn__C                                            
000012ac  xdc_runtime_Error_raiseHook__C                                            
000012b0  xdc_runtime_IGateProvider_Interface__BASE__C                              
000012b4  xdc_runtime_IHeap_Interface__BASE__C                                      
000012b8  xdc_runtime_IModule_Interface__BASE__C                                    
000012bc  xdc_runtime_Memory_defaultHeapInstance__C                                 
000012c0  xdc_runtime_Startup_execImpl__C                                           
000012c4  xdc_runtime_Startup_maxPasses__C                                          
000012c8  xdc_runtime_Startup_sfxnRts__C                                            
000012cc  xdc_runtime_Startup_sfxnTab__C                                            
000012d0  xdc_runtime_Startup_startModsFxn__C                                       
000012d4  xdc_runtime_SysCallback_abortFxn__C                                       
000012d8  xdc_runtime_SysCallback_exitFxn__C                                        
000012dc  xdc_runtime_System_abortFxn__C                                            
000012e0  xdc_runtime_System_exitFxn__C                                             
000012e4  xdc_runtime_System_maxAtexitHandlers__C                                   
000012e8  xdc_runtime_Text_charTab__C                                               
000012ec  xdc_runtime_Text_nameEmpty__C                                             
000012f0  xdc_runtime_Text_nameStatic__C                                            
000012f4  xdc_runtime_Text_nameUnknown__C                                           
000012f8  xdc_runtime_Error_maxDepth__C                                             
000012fa  xdc_runtime_Memory_Module__id__C                                          
000012fc  xdc_runtime_Text_charCnt__C                                               
000012fe  xdc_runtime_Text_isLoaded__C                                              
00001300  xdc_runtime_Error_policy__C                                               
00001304  ti_sysbios_rom_ROM_ti_sysbios_family_arm_cc26xx_Timer_getCount64__E       
00001308  ti_sysbios_rom_ROM_ti_sysbios_family_arm_cc26xx_Timer_getCurrentTick__E   
0000130c  ti_sysbios_rom_ROM_ti_sysbios_family_arm_cc26xx_Timer_getMaxTicks__E      
00001310  ti_sysbios_rom_ROM_ti_sysbios_family_arm_cc26xx_Timer_initDevice__I       
00001314  ti_sysbios_rom_ROM_ti_sysbios_family_arm_cc26xx_Timer_setNextTick__E      
00001318  ti_sysbios_rom_ROM_ti_sysbios_family_arm_cc26xx_Timer_setThreshold__I     
0000131c  ti_sysbios_rom_ROM_ti_sysbios_family_arm_cc26xx_Timer_start__E            
00001320  ti_sysbios_rom_ROM_ti_sysbios_family_arm_cc26xx_TimestampProvider_get32__E
00001324  ti_sysbios_rom_ROM_xdc_runtime_Startup_getState__I                        
00001328  ti_sysbios_rom_ROM_xdc_runtime_System_SupportProxy_abort__E               
0000132c  ti_sysbios_rom_ROM_xdc_runtime_System_SupportProxy_exit__E                
000020f5  PowerCC26XX_auxISR                                                        
00002409  xdc_runtime_System_doPrint__I                                             
00002cad  GAPRole_SetParameter                                                      
000033ed  Power_sleep                                                               
00003619  NOROM_SysCtrlSetRechargeBeforePowerDown                                   
00003839  SPICC26XXDMA_transfer                                                     
00003a55  RF_open                                                                   
00003e41  AssertHandler                                                             
000041b9  PIN_init                                                                  
00004371  ECCROMCC26XX_genDHKey                                                     
00004515  icall_directAPI                                                           
000046ad  PowerCC26XX_doCalibrate                                                   
000049c1  Power_shutdown                                                            
00004c81  UARTCC26XX_open                                                           
00004dd5  UARTCC26XX_hwiIntFxn                                                      
0000505d  UARTCC26XX_read                                                           
00005191  Power_init                                                                
000053e5  ECCROMCC26XX_genKeys                                                      
0000550d  SendToBlink                                                               
00005635  GAPRole_GetParameter                                                      
00005759  SPICC26XXDMA_open                                                         
00005989  main                                                                      
00005cb5  UARTCC26XX_write                                                          
00005db9  xdc_runtime_System_printfExtend__I                                        
00005f9d  PowerCC26XX_standbyPolicy                                                 
00006085  SPICC26XXDMA_transferCancel                                               
00006329  ADCCC26XX_convert                                                         
00006401  CryptoCC26XX_open                                                         
000064d5  RF_pendCmd                                                                
00006739  RF_postCmd                                                                
000067fd  RF_control                                                                
0000697d  Power_releaseDependency                                                   
00006a39  ExtFlash_open                                                             
00006af1  NOROM_AUXADCEnableSync                                                    
00006ba9  NOROM_SetupTrimDevice                                                     
00006ba9  ti_sysbios_family_arm_cc26xx_Boot_trimDevice                              
00006c5d  Power_setDependency                                                       
00006e75  TRNGCC26XX_getNumber                                                      
00006fd5  DisplayUartAnsi_clearLines                                                
0000712d  DisplayUartAnsi_open                                                      
000071d5  xdc_runtime_Text_putSite__E                                               
0000727b  DefaultAssertCback                                                        
0000727d  MyPowerDown                                                               
00007469  PIN_open                                                                  
000075a9  __TI_auto_init                                                            
00007649  DisplayUartAnsi_vprintf                                                   
00007785  UARTCC26XX_writeCancel                                                    
00007821  __aeabi_memcpy                                                            
00007821  __aeabi_memcpy4                                                           
00007821  __aeabi_memcpy8                                                           
00007821  memcpy                                                                    
000079ed  UARTCC26XX_swiIntFxn                                                      
00007a85  ti_sysbios_knl_Clock_workFuncDynamic__E                                   
00007b1d  xdc_runtime_Text_putMod__E                                                
00007bb5  __aeabi_uldivmod                                                          
00007c4b  DisplayUartAnsi_init                                                      
00007c4d  NOROM_CRYPTOAesLoadKey                                                    
00007d75  SPICC26XXDMA_control                                                      
00007e95  ti_sysbios_family_arm_cc26xx_Timer_start__E                               
00007f25  CC2640R2_LAUNCHXL_shutDownExtFlash                                        
00007fb1  ICall_heapMalloc                                                          
000080c9  CryptoCC26XX_allocateKey                                                  
00008155  ADCCC26XX_open                                                            
000081dd  NOROM_AUXADCDisable                                                       
00008265  GATTServApp_ProcessCharCfg                                                
000082e9  ICall_setTimer                                                            
0000836d  UARTCC26XX_close                                                          
000083f1  ti_sysbios_hal_SecondsClock_Module_startup__E                             
00008475  writeFlashPg                                                              
000086f7  _nop                                                                      
000087f1  OAD_cancel                                                                
00008963  __aeabi_memclr                                                            
00008963  __aeabi_memclr4                                                           
00008963  __aeabi_memclr8                                                           
00008965  __aeabi_memset                                                            
00008965  __aeabi_memset4                                                           
00008965  __aeabi_memset8                                                           
0000896b  memset                                                                    
00008a55  ICall_getHeapStats                                                        
00008a55  ICall_heapGetStats                                                        
00008ac5  ICall_heapInit                                                            
00008b35  NOROM_SysCtrlAdjustRechargeAfterPowerDown                                 
00008c15  xdc_runtime_System_formatNum__I                                           
00008c85  ICall_send                                                                
00008cf1  ICall_sendServiceComplete                                                 
00008d5d  NOROM_OSCHF_AttemptToSwitchToXosc                                         
00008dc9  PowerCC26XX_initiateCalibration                                           
00008f75  NOROM_SysCtrl_DCDC_VoltageConditionalControl                              
00008fdd  PIN_add                                                                   
00009045  RF_getCurrentTime                                                         
0000917d  UARTCC26XX_readCancel                                                     
000091e5  __TI_decompress_lzss                                                      
0000924d  CryptoCC26XX_loadKey                                                      
000092b1  OAD_getSWVersion                                                          
00009315  eraseFlashPg                                                              
00009379  GATTServApp_ProcessCCCWriteReq                                            
000093d9  ICall_createRemoteTasksAtRuntime                                          
00009439  ICall_enrollService                                                       
00009499  PowerCC26XX_calibrate                                                     
000095b9  xdc_runtime_Text_putLab__E                                                
00009619  ICall_fetchMsg                                                            
00009677  halAssertSpinlock                                                         
00009679  Display_doOpen                                                            
00009731  ICall_pwrUpdActivityCounter                                               
0000978d  PowerCC26XX_RCOSC_clockFunc                                               
000098a1  UDMACC26XX_open                                                           
000098fd  xdc_runtime_Startup_getState__I                                           
000099b3  ICall_wait                                                                
00009a0b  __aeabi_idiv0                                                             
00009a0b  __aeabi_ldiv0                                                             
00009a0d  PIN_remove                                                                
00009abd  RF_getInfo                                                                
00009b15  UARTCC26XX_control                                                        
00009b6d  Util_convertBytes2Str                                                     
00009bc5  ExtFlash_close                                                            
00009cc1  SPICC26XXDMA_close                                                        
00009d13  ti_sysbios_BIOS_nullFunc__I                                               
00009d15  ClockP_construct                                                          
00009d65  ECCROMCC26XX_Params_init                                                  
00009db5  ICall_registerApp                                                         
00009e05  MyDataTransfer_SetParameter                                               
00009ea5  Util_convertBdAddr2Str                                                    
0000a079  copy_in                                                                   
0000a0c5  CC2640R2_LAUNCHXL_wakeUpExtFlash                                          
0000a155  PIN_setOutputEnable                                                       
0000a1e5  Util_constructClock                                                       
0000a22d  ti_sysbios_family_arm_cc26xx_Timer_setThreshold__I                        
0000a301  NOROM_OSCHF_SwitchToRcOscTurnOffXosc                                      
0000a345  RingBuf_put                                                               
0000a3cd  ResetISR                                                                  
0000a3cd  _c_int00                                                                  
0000a411  ti_sysbios_hal_SecondsClock_increment__I                                  
0000a455  xdc_runtime_Text_xprintf__I                                               
0000a499  NOROM_SSIConfigSetExpClk                                                  
0000a4db  ti_sysbios_rom_cortexm_cc26xx_r2_CC26xx_badRomRevision__E                 
0000a4dd  ADCCC26XX_convertToMicroVolts                                             
0000a51d  ADC_init                                                                  
0000a55d  ADC_open                                                                  
0000a59d  ECCROMCC26XX_init                                                         
0000a5dd  ExtFlash_read                                                             
0000a65d  GAPRole_createTask                                                        
0000a69d  PINCC26XX_getConfig                                                       
0000a71d  PowerCC26XX_isStableXOSC_HF                                               
0000a75d  SPI_init                                                                  
0000a79d  SPI_open                                                                  
0000a7dd  UART_init                                                                 
0000a81d  UART_open                                                                 
0000a89d  __aeabi_uidiv                                                             
0000a89d  __aeabi_uidivmod                                                          
0000a8dd  ti_sysbios_heaps_HeapCallback_Module_startup__E                           
0000a91d  HwiP_construct                                                            
0000a95b  RingBuf_get                                                               
0000a999  ADCCC26XX_close                                                           
0000aa11  NOROM_OSC_HPOSCRelativeFrequencyOffsetGet                                 
0000aa89  SimplePeripheral_createTask                                               
0000aac5  SwiP_construct                                                            
0000ab3d  ti_sysbios_family_arm_m3_Hwi_construct2__E                                
0000ab79  MyDataTransfer_GetParameter                                               
0000abb1  PIN_setConfig                                                             
0000abe9  PIN_setInterrupt                                                          
0000ac21  PIN_setOutputValue                                                        
0000ac91  RF_powerConstraintRelease                                                 
0000acc9  Util_restartClock                                                         
0000ad01  ti_sysbios_family_arm_cc26xx_Seconds_get__E                               
0000ad01  ti_sysbios_hal_Seconds_SecondsProxy_get__E                                
0000ad01  ti_sysbios_hal_Seconds_get__E                                             
0000ad39  ti_sysbios_family_arm_cc26xx_Timer_getCurrentTick__E                      
0000ad71  UDMACC26XX_close                                                          
0000ada7  xdc_runtime_SysCallback_defaultAbort                                      
0000ada9  GAPRole_StartDiscovery                                                    
0000addd  ICall_free                                                                
0000addd  ICall_heapFree                                                            
0000ae45  ICall_searchServiceEntity                                                 
0000ae79  Power_releaseConstraint                                                   
0000aee1  SimplePeripheral_RegistertToAllConnectionEvent                            
0000af7d  ti_sysbios_family_arm_cc26xx_Timer_initDevice__I                          
0000afb1  ti_sysbios_knl_Swi_setPri__E                                              
0000afe5  ICall_fetchServiceMsg                                                     
0000b017  ti_sysbios_family_arm_cc26xx_Timer_setNextTick__E                         
0000b0a9  NOROM_AUXADCDisableInputScaling                                           
0000b0d9  PINCC26XX_setMux                                                          
0000b109  Power_setConstraint                                                       
0000b1c9  ti_sysbios_BIOS_atExitFunc__I                                             
0000b1f9  ti_sysbios_BIOS_startFunc__I                                              
0000b229  ti_sysbios_heaps_HeapCallback_Object__create__S                           
0000b311  malloc                                                                    
0000b399  GAPRole_TerminateConnection                                               
0000b41d  NOROM_ChipInfo_GetChipFamily                                              
0000b4a1  SafeHapiAuxAdiSelect                                                      
0000b4cd  SemaphoreP_constructBinary                                                
0000b4f9  SemaphoreP_createBinary                                                   
0000b551  ti_sysbios_knl_Clock_getTicksUntilInterrupt__E                            
0000b57d  xdc_runtime_Text_printVisFxn__I                                           
0000b5a9  DisplayUartAnsi_clear                                                     
0000b5d3  Display_doPrintf                                                          
0000b5fd  ti_sysbios_knl_Clock_getTimeout__E                                        
0000b627  xdc_runtime_System_putchar__I                                             
0000b651  NOROM_ChipInfo_GetChipType                                                
0000b679  NOROM_RFCDoorbellSendTo                                                   
0000b6a1  PINCC26XX_setWakeup                                                       
0000b6c9  Power_registerNotify                                                      
0000b6f1  RF_runCmd                                                                 
0000b741  SafeHapiVoid                                                              
0000b769  TRNGCC26XX_init                                                           
0000b791  imgIDCheck                                                                
0000b805  CryptoCC26XX_hwiIntFxn                                                    
0000b829  ICall_getLocalMsgEntityId                                                 
0000b84d  List_remove                                                               
0000b871  NOROM_OSCHF_TurnOnXosc                                                    
0000b895  memcmp                                                                    
0000b8b9  ti_sysbios_BIOS_registerRTSLock__I                                        
0000b8dd  ti_sysbios_BIOS_removeRTSLock__I                                          
0000b901  ti_sysbios_family_arm_cc26xx_Seconds_set__E                               
0000b901  ti_sysbios_hal_Seconds_SecondsProxy_set__E                                
0000b901  ti_sysbios_hal_Seconds_set__E                                             
0000b925  ti_sysbios_family_arm_cc26xx_Timer_getMaxTicks__E                         
0000b949  ti_sysbios_family_arm_m3_Hwi_romInitNVIC__I                               
0000b96d  ICall_setTimerMSecs                                                       
0000b98f  List_get                                                                  
0000b9b1  List_put                                                                  
0000b9d3  NOROM_AUXADCAdjustValueForGainAndOffset                                   
0000b9f5  NOROM_UARTConfigSetExpClk                                                 
0000ba17  xdc_runtime_SysCallback_defaultExit                                       
0000ba19  CryptoCC26XX_init                                                         
0000ba39  GAPRole_CancelDiscovery                                                   
0000ba59  GATTServApp_InitCharCfg                                                   
0000ba79  NOROM_UARTDisable                                                         
0000ba99  PowerCC26XX_schedulerDisable                                              
0000bab9  PowerCC26XX_schedulerRestore                                              
0000bad9  Power_unregisterNotify                                                    
0000bb59  ti_sysbios_BIOS_rtsLock__I                                                
0000bb79  ti_sysbios_family_arm_cc26xx_Timer_dynamicStub__E                         
0000bb99  xdc_runtime_Registry_findById__E                                          
0000bbb9  ECC_ArrayAllZeros                                                         
0000bbd7  PIN_close                                                                 
0000bbf5  Power_getTransitionLatency                                                
0000bc13  xdc_runtime_SysCallback_defaultPutch                                      
0000bc15  GATT_bm_alloc                                                             
0000bc31  GATT_bm_free                                                              
0000bc69  ICall_mallocLimited                                                       
0000bca1  NOROM_AUXADCGetAdjustmentGain                                             
0000bd11  RF_getRssi                                                                
0000bd2d  RF_powerConstraintSet                                                     
0000bd65  TRNGCC26XX_open                                                           
0000bd81  memCpy                                                                    
0000bd9d  openTRNG                                                                  
0000bdb9  ti_sysbios_family_arm_m3_Hwi_clearInterrupt__E                            
0000bdb9  ti_sysbios_hal_Hwi_HwiProxy_clearInterrupt__E                             
0000bdb9  ti_sysbios_hal_Hwi_clearInterrupt__E                                      
0000bdd5  ti_sysbios_knl_Clock_Module__startupDone__S                               
0000bdf1  ti_sysbios_knl_Swi_construct2__E                                          
0000be0d  ICall_enterCSImpl                                                         
0000be27  SystemP_snprintf                                                          
0000be41  Board_Power_down                                                          
0000be59  NOROM_AUXADCGetAdjustmentOffset                                           
0000be71  NOROM_ChipInfo_GetPackageType                                             
0000be89  NOROM_RFCCpeIntGetAndClear                                                
0000bea1  PIN_getConfig                                                             
0000beb9  Power_idleFunc                                                            
0000bf01  Task_sleepMS                                                              
0000bf19  UARTCC26XX_init                                                           
0000bf31  UART_Params_init                                                          
0000bf49  _args_main                                                                
0000bf79  flash_open                                                                
0000bf91  free                                                                      
0000bfa9  readFlashPg                                                               
0000bfc1  __aeabi_lmul                                                              
0000bfd9  ti_sysbios_BIOS_rtsUnlock__I                                              
0000bff1  ti_sysbios_heaps_HeapCallback_Instance_init__E                            
0000c009  ti_sysbios_knl_Swi_or__E                                                  
0000c021  ti_sysbios_rom_cortexm_cc26xx_r2_CC26xx_checkRevision__E                  
0000c039  xdc_runtime_Error_init__E                                                 
0000c051  DisplayUartAnsi_close                                                     
0000c067  ICall_leaveCSImpl                                                         
0000c07d  ICall_pwrDispense                                                         
0000c093  ICall_pwrRequire                                                          
0000c0bf  driverTable_fnSpinlock                                                    
0000c0eb  ti_sysbios_BIOS_errorRaiseHook__I                                         
0000c101  ti_sysbios_BIOS_exitFunc__I                                               
0000c119  Board_setVibro                                                            
0000c12d  List_clearList                                                            
0000c141  NOROM_AUXADCValueToMicrovolts                                             
0000c155  PIN_getInputValue                                                         
0000c169  RF_Params_init                                                            
0000c191  RF_getCmdOp                                                               
0000c1b9  SPI_Params_init                                                           
0000c1e1  flash_close                                                               
0000c1f5  strlen                                                                    
0000c209  ti_sysbios_family_arm_cc26xx_Timer_getCount64__E                          
0000c21d  ti_sysbios_heaps_HeapCallback_Object__get__S                              
0000c231  ti_sysbios_knl_Clock_doTick__I                                            
0000c245  GATTServApp_FindAttr                                                      
0000c257  RingBuf_construct                                                         
0000c269  SemaphoreP_pend                                                           
0000c27b  SwiP_inISR                                                                
0000c28d  xdc_runtime_Startup_exec__I                                               
0000c2a1  Board_setLed0_my                                                          
0000c2b1  Board_setLed1_my                                                          
0000c2c1  ClockP_isActive                                                           
0000c2d1  GATTServApp_ReadCharCfg                                                   
0000c2e1  HwiP_Params_init                                                          
0000c2f1  HwiP_inISR                                                                
0000c311  NOROM_AUXADCFlushFifo                                                     
0000c321  NOROM_AUXADCReadFifo                                                      
0000c331  PINCC26XX_getPinCount                                                     
0000c371  SwiP_Params_init                                                          
0000c381  Util_isActive                                                             
0000c3b1  gapRole_clockHandler                                                      
0000c3c1  halAssertHandlerExt                                                       
0000c3d1  ti_sysbios_family_arm_m3_Hwi_post__E                                      
0000c3d1  ti_sysbios_hal_Hwi_HwiProxy_post__E                                       
0000c3d1  ti_sysbios_hal_Hwi_post__E                                                
0000c3e1  ti_sysbios_heaps_HeapCallback_alloc__E                                    
0000c3f1  ti_sysbios_heaps_HeapCallback_free__E                                     
0000c401  ti_sysbios_heaps_HeapCallback_getStats__E                                 
0000c411  ti_sysbios_heaps_HeapCallback_isBlocking__E                               
0000c431  xdc_runtime_SysCallback_putch__E                                          
0000c431  xdc_runtime_System_SupportProxy_putch__E                                  
0000c441  xdc_runtime_SysCallback_ready__E                                          
0000c441  xdc_runtime_System_SupportProxy_ready__E                                  
0000c451  xdc_runtime_System_vsnprintf__E                                           
0000c461  ICall_abort                                                               
0000c46f  ICall_signal                                                              
0000c47d  NOROM_UARTCharGetNonBlocking                                              
0000c48b  NOROM_UARTCharPutNonBlocking                                              
0000c499  RF_cancelCmd                                                              
0000c4a7  SPICC26XXDMA_init                                                         
0000c4b5  __TI_decompress_none                                                      
0000c4c3  ti_sysbios_family_arm_cc26xx_TimestampProvider_get32__E                   
0000c4c3  xdc_runtime_Timestamp_SupportProxy_get32__E__mangled__                    
0000c4d1  Display_doClose                                                           
0000c4e9  NOROM_CPUcpsid                                                            
0000c4f5  NOROM_CPUcpsie                                                            
0000c501  NOROM_OSC_HPOSCRelativeFrequencyOffsetToRFCoreFormatConvert               
0000c50d  NOROM_SSIDataGet                                                          
0000c519  PIN_registerIntCb                                                         
0000c525  Power_getConstraintMask                                                   
0000c531  Power_getDependencyCount                                                  
0000c53d  RF_powerConstraintGet                                                     
0000c549  SemaphoreP_delete                                                         
0000c555  _register_lock                                                            
0000c561  _register_unlock                                                          
0000c56d  __TI_zero_init                                                            
0000c585  osalHeapGetStatsFxn                                                       
0000c591  osalHeapInitFxn                                                           
0000c5a9  ti_sysbios_BIOS_getThreadType__E                                          
0000c5b5  ti_sysbios_knl_Swi_getTrigger__E                                          
0000c5c1  xdc_runtime_Startup_reset__I                                              
0000c5cd  ADC_Params_init                                                           
0000c5d7  ADC_close                                                                 
0000c5e1  ADC_convert                                                               
0000c5eb  ADC_convertToMicroVolts                                                   
0000c5f5  ClockP_Params_init                                                        
0000c5ff  ICall_stopTimer                                                           
0000c609  NOROM_SSIDataPut                                                          
0000c613  RF_flushCmd                                                               
0000c61d  SPI_close                                                                 
0000c627  SPI_transfer                                                              
0000c64f  UART_close                                                                
0000c659  UART_control                                                              
0000c663  UART_write                                                                
0000c66d  UDMACC26XX_hwiIntFxn                                                      
0000c677  ti_sysbios_family_arm_cc26xx_Timer_getFreq__E                             
0000c681  ADCCC26XX_init                                                            
0000c689  CryptoCC26XX_Params_init                                                  
0000c6b9  xdc_runtime_Text_visitRope__I                                             
0000c6c1  ADCCC26XX_control                                                         
0000c6c7  CryptoCC26XX_transact                                                     
0000c6cd  CryptoCC26XX_transactPolling                                              
0000c6d3  DisplayUartAnsi_control                                                   
0000c6d9  DisplayUartAnsi_getType                                                   
0000c6df  ICall_freeMsg                                                             
0000c6e5  NOROM_CPUdelay                                                            
0000c6eb  RF_runDirectCmd                                                           
0000c6f1  RF_runImmediateCmd                                                        
0000c6f7  UARTCC26XX_readPolling                                                    
0000c6fd  UARTCC26XX_writePolling                                                   
0000c703  osalHeapAllocFxn                                                          
0000c709  osalHeapFreeFxn                                                           
0000c70f  rfErrCb                                                                   
0000c715  ti_sysbios_family_arm_m3_Hwi_setFunc__E                                   
0000c71f  ClockP_destruct                                                           
0000c723  ClockP_getCpuFreq                                                         
0000c727  ClockP_getTimeout                                                         
0000c72b  ClockP_setTimeout                                                         
0000c72f  ClockP_start                                                              
0000c733  ClockP_stop                                                               
0000c737  HwiP_clearInterrupt                                                       
0000c73b  HwiP_destruct                                                             
0000c73f  HwiP_disable                                                              
0000c743  HwiP_enableInterrupt                                                      
0000c747  HwiP_post                                                                 
0000c74b  HwiP_setFunc                                                              
0000c74f  HwiP_setPriority                                                          
0000c753  ICall_malloc                                                              
0000c757  PowerCC26XX_switchXOSC_HF                                                 
0000c75b  SemaphoreP_destruct                                                       
0000c75f  SemaphoreP_post                                                           
0000c763  SwiP_destruct                                                             
0000c767  SwiP_disable                                                              
0000c76b  SwiP_getTrigger                                                           
0000c76f  SwiP_or                                                                   
0000c773  SwiP_post                                                                 
0000c777  SwiP_setPriority                                                          
0000c77b  SystemP_vsnprintf                                                         
0000c77f  Util_startClock                                                           
0000c783  Util_stopClock                                                            
0000c787  C$$EXIT                                                                   
0000c787  abort                                                                     
0000c787  xdc_runtime_System_abortStd__E                                            
0000c78f  osalHeapIsBlockingFxn                                                     
0000c793  ti_sysbios_heaps_HeapCallback_defaultCreate                               
0000c797  ti_sysbios_knl_Clock_TimerProxy_getFreq__E                                
0000c79b  ti_sysbios_knl_Clock_isActive__E                                          
0000c79f  ti_sysbios_knl_Clock_setPeriod__E                                         
0000c7a3  xdc_runtime_SysCallback_defaultReady                                      
0000c9b8  ADC_config                                                                
0000ca68  oadCBs                                                                    
0000cb26  devInfo11073CertUUID                                                      
0000cb28  rfDriverTableBLE                                                          
0000cb94  adcCC26xxHWAttrs                                                          
0000cbe1  devInfoFirmwareRevUUID                                                    
0000cbe3  Display_defaultParams                                                     
0000cbe4  myDataTransferCBs                                                         
0000cbf0  myDataTransfer_MyBufIn1UUID                                               
0000cc00  myDataTransfer_MyBufOut1UUID                                              
0000cc10  myDataTransfer_MyBufIn2UUID                                               
0000cc20  myDataTransfer_MyBufOut2UUID                                              
0000cc30  resourceDB                                                                
0000ccc4  icallServiceTable                                                         
0000cd50  TRNGCC26XX_config                                                         
0000cd60  BoardGpioInitTable                                                        
0000cd94  a_mont                                                                    
0000cdb4  b_mont                                                                    
0000cdd4  spiCC26XXDMAHWAttrs                                                       
0000ce4c  primaryServiceUUID                                                        
0000ce4e  characterUUID                                                             
0000ce50  charUserDescUUID                                                          
0000ce52  clientCharCfgUUID                                                         
0000ce54  gapServiceUUID                                                            
0000ce56  gattServiceUUID                                                           
0000ce58  secondaryServiceUUID                                                      
0000ce5a  includeUUID                                                               
0000ce5c  charExtPropsUUID                                                          
0000ce5e  servCharCfgUUID                                                           
0000ce60  charFormatUUID                                                            
0000ce62  charAggFormatUUID                                                         
0000ce64  deviceNameUUID                                                            
0000ce66  appearanceUUID                                                            
0000ce68  periPrivacyFlagUUID                                                       
0000ce6a  reconnectAddrUUID                                                         
0000ce6c  periConnParamUUID                                                         
0000ce6e  serviceChangedUUID                                                        
0000ce70  validRangeUUID                                                            
0000ce72  extReportRefUUID                                                          
0000ce74  reportRefUUID                                                             
0000ce78  cryptoDriverTableBLE                                                      
0000cea4  xdc_runtime_Startup_sfxnTab__A                                            
0000ced0  UARTCC26XX_fxnTable                                                       
0000cef8  ti_sysbios_heaps_HeapCallback_Module__FXNS__C                             
0000cf20  uartCC26XXHWAttrs                                                         
0000cf48  TxPowerTable                                                              
0000cf6f  xdc_runtime_Text_charTab__A                                               
0000cf70  UART_defaultParams                                                        
0000cf94  bleStackConfig                                                            
0000cfb8  DisplayUartAnsi_fxnTable                                                  
0000cfd8  SPI_defaultParams                                                         
0000cff8  ti_sysbios_heaps_HeapCallback_Object__DESC__C                             
0000d050  ti_sysbios_heaps_HeapCallback_Object__PARAMS__C                           
0000d09c  ADCCC26XX_fxnTable                                                        
0000d0b4  PowerCC26XX_config                                                        
0000d0cc  SPICC26XXDMA_fxnTable                                                     
0000d0e4  SPI_config                                                                
0000d0fc  driverTable                                                               
0000d114  xdc_runtime_Startup_sfxnRts__A                                            
0000d140  displayUartHWAttrs                                                        
0000d165  devInfoHardwareRevUUID                                                    
0000d168  OAD_IMG_ID                                                                
0000d170  OAD_EXTFL_ID                                                              
0000d188  myDataTransferUUID                                                        
0000d1a8  cryptoCC26XXHWAttrs                                                       
0000d1b8  eccDriverTable                                                            
0000d1d5  devInfoMfrNameUUID                                                        
0000d1d8  Display_config                                                            
0000d1e4  UART_config                                                               
0000d1f0  boardConfig                                                               
0000d1fc  devInfoCBs                                                                
0000d208  trngDriverTable                                                           
0000d214  xdc_runtime_Startup_firstFxns__A                                          
0000d22a  ADCBuf_count                                                              
0000d22b  ADC_count                                                                 
0000d22c  Display_count                                                             
0000d22d  I2C_count                                                                 
0000d22e  NVS_count                                                                 
0000d22f  PWM_count                                                                 
0000d230  SD_count                                                                  
0000d231  SPI_count                                                                 
0000d232  UART_count                                                                
0000d233  Watchdog_count                                                            
0000d23c  ADC_defaultParams                                                         
0000d244  CryptoCC26XX_config                                                       
0000d24c  PINCC26XX_hwAttrs                                                         
0000d254  UDMACC26XX_config                                                         
0000d274  rtosApiTable                                                              
0000d27c  udmaHWAttrs                                                               
0000d28b  appTxPwrTbl                                                               
0000d291  devInfoModelNumberUUID                                                    
0000d294  TRNGCC26XXHWAttrs                                                         
0000d298  ti_sysbios_family_arm_cc26xx_Timer_funcHookCH1__C                         
0000d29c  ti_sysbios_family_arm_cc26xx_Timer_funcHookCH2__C                         
0000d2a0  ti_sysbios_family_arm_m3_Hwi_swiDisable__C                                
0000d2a4  ti_sysbios_family_arm_m3_Hwi_swiRestoreHwi__C                             
0000d2a8  ti_sysbios_hal_SecondsClock_Module_State_clock__O                         
0000d2ac  ti_sysbios_heaps_HeapCallback_Object__count__C                            
0000d2b0  ti_sysbios_heaps_HeapCallback_allocInstFxn__C                             
0000d2b4  ti_sysbios_heaps_HeapCallback_createInstFxn__C                            
0000d2b8  ti_sysbios_heaps_HeapCallback_freeInstFxn__C                              
0000d2bc  ti_sysbios_heaps_HeapCallback_getStatsInstFxn__C                          
0000d2c0  ti_sysbios_heaps_HeapCallback_initInstFxn__C                              
0000d2c4  ti_sysbios_heaps_HeapCallback_isBlockingInstFxn__C                        
0000d2c8  ti_sysbios_knl_Clock_tickPeriod__C                                        
0000d2cc  ti_sysbios_knl_Idle_funcList__A                                           
0000d2d0  xdc_runtime_SysCallback_putchFxn__C                                       
0000d2d4  xdc_runtime_SysCallback_readyFxn__C                                       
0000d2d8  xdc_runtime_System_extendFxn__C                                           
0000d2dc  xdc_runtime_Text_visitRopeFxn__C                                          
0000d2e0  devInfoPnpIdUUID                                                          
0000d2e2  devInfoSerialNumberUUID                                                   
0000d2e4  devInfoServUUID                                                           
0000d2e6  devInfoSoftwareRevUUID                                                    
0000d2e8  devInfoSystemIdUUID                                                       
0000d2ea  ti_sysbios_knl_Clock_Module__id__C                                        
0000d2ec  xdc_runtime_Text_registryModsLastId__C                                    
0000d2ee  xdc_runtime_Text_unnamedModsLastId__C                                     
0000d2f0  __ccfg                                                                    
0000d834  __TI_Handler_Table_Base                                                   
0000d840  __TI_Handler_Table_Limit                                                  
0000d89c  __TI_CINIT_Base                                                           
0000d924  __TI_CINIT_Limit                                                          
0000d924  flashEndAddr                                                              
0001ffff  __UNUSED_FLASH_end__                                                      
100167a5  eccRom_signHash                                                           
10016941  eccRom_verifyHash                                                         
10016c1d  eccRom_genKeys                                                            
10016c65  eccRom_genSharedSecret                                                    
10019808  NIST_Curve_P256_p                                                         
1001982c  NIST_Curve_P256_r                                                         
10019850  NIST_Curve_P256_a                                                         
10019874  NIST_Curve_P256_b                                                         
10019898  NIST_Curve_P256_Gx                                                        
100198bc  NIST_Curve_P256_Gy                                                        
10019b00  ti_sysbios_rom_cortexm_cc26xx_r2_CC26xx_REVISION__C                       
10019b05  ti_sysbios_knl_Semaphore_pend__E                                          
10019bf9  ti_sysbios_knl_Event_pend__E                                              
10019ce1  ti_sysbios_knl_Task_Instance_init__E                                      
10019dad  ti_sysbios_knl_Mailbox_Instance_init__E                                   
10019e75  ti_sysbios_family_arm_m3_Hwi_postInit__I                                  
10019f25  ti_sysbios_family_arm_cc26xx_Timer_periodicStub__E                        
10019fc1  ti_sysbios_family_arm_m3_Hwi_Instance_init__E                             
1001a059  ti_sysbios_knl_Task_Instance_finalize__E                                  
1001a0ed  ti_sysbios_knl_Mailbox_post__E                                            
1001a171  ti_sysbios_family_arm_m3_Hwi_initNVIC__E                                  
1001a1f1  ti_sysbios_knl_Clock_startI__E                                            
1001a271  ti_sysbios_knl_Task_postInit__I                                           
1001a2f1  ti_sysbios_knl_Clock_walkQueueDynamic__E                                  
1001a369  ti_sysbios_knl_Clock_workFunc__E                                          
1001a3e1  ti_sysbios_knl_Semaphore_post__E                                          
1001a455  ti_sysbios_knl_Event_post__E                                              
1001a4c5  ti_sysbios_knl_Mailbox_Instance_finalize__E                               
1001a535  ti_sysbios_knl_Mailbox_pend__E                                            
1001a5a5  ti_sysbios_knl_Task_sleep__E                                              
1001a615  ti_sysbios_heaps_HeapMem_allocUnprotected__E                              
1001a683  ti_sysbios_BIOS_linkedWithIncorrectBootLibrary__E                         
1001a685  ti_sysbios_knl_Semaphore_Instance_init__E                                 
1001a6ed  ti_sysbios_knl_Swi_restoreHwi__E                                          
1001a755  ti_sysbios_family_arm_m3_Hwi_Instance_finalize__E                         
1001a7b9  ti_sysbios_family_arm_m3_Hwi_Object__create__S                            
1001a81d  ti_sysbios_family_arm_m3_Hwi_dispatchC__I                                 
1001a881  ti_sysbios_hal_Hwi_create                                                 
1001a8e5  ti_sysbios_family_arm_m3_Hwi_create                                       
1001a945  ti_sysbios_knl_Mailbox_create                                             
1001a9a5  ti_sysbios_knl_Swi_Instance_init__E                                       
1001aa05  ti_sysbios_knl_Task_Module_startup__E                                     
1001aa61  ti_sysbios_knl_Task_startCore__E                                          
1001aabd  ti_sysbios_family_arm_m3_Hwi_construct                                    
1001ab15  ti_sysbios_heaps_HeapMem_alloc__E                                         
1001ab6d  ti_sysbios_heaps_HeapMem_freeUnprotected__E                               
1001abc5  ti_sysbios_knl_Mailbox_construct                                          
1001ac1d  ti_sysbios_knl_Swi_create                                                 
1001ac75  ti_sysbios_knl_Swi_run__I                                                 
1001accd  ti_sysbios_knl_Task_create                                                
1001ad25  ti_sysbios_knl_Swi_schedule__I                                            
1001ad79  ti_sysbios_knl_Swi_construct                                              
1001adc9  ti_sysbios_knl_Swi_runLoop__I                                             
1001ae19  ti_sysbios_knl_Task_construct                                             
1001ae69  ti_sysbios_knl_Task_schedule__I                                           
1001aeb5  ti_sysbios_family_arm_m3_Hwi_Module_startup__E                            
1001aefd  ti_sysbios_heaps_HeapMem_getStats__E                                      
1001af45  ti_sysbios_family_arm_m3_Hwi_disableInterrupt__E                          
1001af45  ti_sysbios_hal_Hwi_HwiProxy_disableInterrupt__E                           
1001af45  ti_sysbios_hal_Hwi_HwiProxy_disableInterrupt__E__mangled__                
1001af45  ti_sysbios_hal_Hwi_disableInterrupt__E                                    
1001af45  ti_sysbios_hal_Hwi_disableInterrupt__E                                    
1001af89  ti_sysbios_family_arm_m3_Hwi_enableInterrupt__E                           
1001af89  ti_sysbios_hal_Hwi_HwiProxy_enableInterrupt__E                            
1001af89  ti_sysbios_hal_Hwi_HwiProxy_enableInterrupt__E__mangled__                 
1001af89  ti_sysbios_hal_Hwi_enableInterrupt__E                                     
1001af89  ti_sysbios_hal_Hwi_enableInterrupt__E                                     
1001afcd  ti_sysbios_knl_Mailbox_Module_startup__E                                  
1001b011  ti_sysbios_knl_Swi_post__E                                                
1001b055  ti_sysbios_knl_Task_allBlockedFunction__I                                 
1001b099  ti_sysbios_family_arm_m3_Hwi_getStackInfo__E                              
1001b099  ti_sysbios_hal_Hwi_HwiProxy_getStackInfo__E                               
1001b099  ti_sysbios_hal_Hwi_HwiProxy_getStackInfo__E__mangled__                    
1001b099  ti_sysbios_hal_Hwi_getStackInfo__E                                        
1001b099  ti_sysbios_hal_Hwi_getStackInfo__E                                        
1001b0d9  ti_sysbios_knl_Task_yield__E                                              
1001b119  ti_sysbios_knl_Task_exit__E                                               
1001b153  ti_sysbios_gates_GateHwi_Instance_init__E                                 
1001b155  ti_sysbios_family_arm_m3_TaskSupport_start__E                             
1001b155  ti_sysbios_knl_Task_SupportProxy_start__E                                 
1001b155  ti_sysbios_knl_Task_SupportProxy_start__E__mangled__                      
1001b18d  ti_sysbios_heaps_HeapMem_Instance_init__E                                 
1001b1c5  ti_sysbios_knl_Clock_Instance_init__E                                     
1001b1fd  ti_sysbios_knl_Clock_create                                               
1001b235  ti_sysbios_heaps_HeapMem_init__I                                          
1001b269  ti_sysbios_knl_Clock_construct                                            
1001b29d  ClockP_getSystemTicks                                                     
1001b29d  ICall_getTicks                                                            
1001b29d  ti_sysbios_knl_Clock_getTicks__E                                          
1001b2d1  ti_sysbios_knl_Semaphore_create                                           
1001b305  SwiP_restore                                                              
1001b305  ti_sysbios_knl_Swi_restore__E                                             
1001b339  ti_sysbios_knl_Task_blockI__E                                             
1001b36d  ti_sysbios_gates_GateMutex_Object__create__S                              
1001b39d  ti_sysbios_gates_GateMutex_create                                         
1001b3cd  ti_sysbios_gates_GateMutex_enter__E                                       
1001b3fd  ti_sysbios_heaps_HeapMem_free__E                                          
1001b42d  ti_sysbios_knl_Event_create                                               
1001b45d  ti_sysbios_knl_Semaphore_construct                                        
1001b48d  ti_sysbios_knl_Task_processVitalTaskFlag__I                               
1001b4bd  ti_sysbios_family_arm_cc26xx_Timer_postInit__I                            
1001b4e9  ti_sysbios_family_arm_cc26xx_Timer_startup__E                             
1001b4e9  ti_sysbios_knl_Clock_TimerProxy_startup__E                                
1001b4e9  ti_sysbios_knl_Clock_TimerProxy_startup__E__mangled__                     
1001b515  ti_sysbios_family_arm_m3_Hwi_Object__get__S                               
1001b541  ti_sysbios_gates_GateMutex_construct                                      
1001b56d  ti_sysbios_hal_Hwi_initStack                                              
1001b599  ti_sysbios_heaps_HeapMem_Object__create__S                                
1001b5c5  ti_sysbios_heaps_HeapMem_Object__get__S                                   
1001b5f1  ti_sysbios_knl_Event_construct                                            
1001b61d  ti_sysbios_knl_Event_pendTimeout__I                                       
1001b649  ti_sysbios_knl_Mailbox_Object__get__S                                     
1001b675  ti_sysbios_knl_Mailbox_postInit__I                                        
1001b6a1  ti_sysbios_knl_Queue_construct                                            
1001b6cd  ti_sysbios_knl_Queue_create                                               
1001b6f9  ti_sysbios_knl_Semaphore_pendTimeout__I                                   
1001b725  ti_sysbios_knl_Swi_Object__get__S                                         
1001b751  ti_sysbios_knl_Task_unblockI__E                                           
1001b77d  ti_sysbios_family_arm_cc26xx_TimestampProvider_get64__E                   
1001b77d  xdc_runtime_Timestamp_SupportProxy_get64__E                               
1001b77d  xdc_runtime_Timestamp_SupportProxy_get64__E__mangled__                    
1001b77d  xdc_runtime_Timestamp_get64__E                                            
1001b77d  xdc_runtime_Timestamp_get64__E                                            
1001b7a5  ti_sysbios_knl_Clock_addI__E                                              
1001b7cd  ti_sysbios_knl_Semaphore_Instance_finalize__E                             
1001b7f5  ti_sysbios_knl_Task_restore__E                                            
1001b81d  ti_sysbios_hal_Hwi_Instance_init__E                                       
1001b843  ti_sysbios_knl_Clock_logTick__E                                           
1001b845  ti_sysbios_family_arm_cc26xx_Timer_Module_startup__E                      
1001b869  ti_sysbios_gates_GateHwi_Object__create__S                                
1001b88d  ti_sysbios_BIOS_RtsGateProxy_Object__delete__S                            
1001b88d  ti_sysbios_gates_GateMutex_Object__delete__S                              
1001b88d  ti_sysbios_heaps_HeapMem_Module_GateProxy_Object__delete__S               
1001b8b1  ti_sysbios_knl_Clock_Object__delete__S                                    
1001b8d5  ti_sysbios_knl_Semaphore_Object__delete__S                                
1001b8f9  ti_sysbios_family_arm_cc26xx_Timer_Module__startupDone__S                 
1001b8f9  ti_sysbios_knl_Clock_TimerProxy_Module__startupDone__S                    
1001b8f9  ti_sysbios_knl_Clock_TimerProxy_Module__startupDone__S__mangled__         
1001b919  ti_sysbios_family_arm_cc26xx_TimestampProvider_Module_startup__E          
1001b939  ti_sysbios_family_arm_m3_Hwi_Module__startupDone__S                       
1001b939  ti_sysbios_hal_Hwi_HwiProxy_Module__startupDone__S                        
1001b939  ti_sysbios_hal_Hwi_HwiProxy_Module__startupDone__S__mangled__             
1001b959  ti_sysbios_family_arm_m3_Hwi_Object__delete__S                            
1001b959  ti_sysbios_hal_Hwi_HwiProxy_Object__delete__S                             
1001b979  ti_sysbios_family_arm_m3_Hwi_excHandler__I                                
1001b999  ti_sysbios_gates_GateHwi_Handle__label__S                                 
1001b999  xdc_runtime_Main_Module_GateProxy_Handle__label__S                        
1001b999  xdc_runtime_System_Module_GateProxy_Handle__label__S                      
1001b999  xdc_runtime_System_Module_GateProxy_Handle__label__S__mangled__           
1001b9b9  ti_sysbios_gates_GateHwi_Object__delete__S                                
1001b9b9  xdc_runtime_System_Module_GateProxy_Object__delete__S                     
1001b9d9  ti_sysbios_BIOS_RtsGateProxy_Handle__label__S                             
1001b9d9  ti_sysbios_BIOS_RtsGateProxy_Handle__label__S__mangled__                  
1001b9d9  ti_sysbios_gates_GateMutex_Handle__label__S                               
1001b9d9  ti_sysbios_heaps_HeapMem_Module_GateProxy_Handle__label__S                
1001b9d9  ti_sysbios_heaps_HeapMem_Module_GateProxy_Handle__label__S__mangled__     
1001b9f9  ti_sysbios_gates_GateMutex_Object__destruct__S                            
1001ba19  ti_sysbios_hal_Hwi_Object__delete__S                                      
1001ba39  ti_sysbios_heaps_HeapMem_Handle__label__S                                 
1001ba39  xdc_runtime_Memory_HeapProxy_Handle__label__S                             
1001ba39  xdc_runtime_Memory_HeapProxy_Handle__label__S__mangled__                  
1001ba59  ti_sysbios_heaps_HeapMem_Object__delete__S                                
1001ba59  xdc_runtime_Memory_HeapProxy_Object__delete__S                            
1001ba79  ti_sysbios_knl_Clock_Module_startup__E                                    
1001ba99  ti_sysbios_knl_Clock_Object__destruct__S                                  
1001bab9  ti_sysbios_knl_Clock_stop__E                                              
1001bad9  ti_sysbios_knl_Event_Object__delete__S                                    
1001baf9  ti_sysbios_knl_Event_checkEvents__I                                       
1001bb19  ti_sysbios_knl_Idle_run__E                                                
1001bb39  ti_sysbios_knl_Mailbox_Object__delete__S                                  
1001bb59  ti_sysbios_knl_Queue_Object__delete__S                                    
1001bb79  ti_sysbios_knl_Queue_Object__get__S                                       
1001bb99  ti_sysbios_knl_Semaphore_Object__destruct__S                              
1001bbb9  ti_sysbios_knl_Swi_Object__delete__S                                      
1001bbd9  ti_sysbios_knl_Task_Object__delete__S                                     
1001bbf9  ti_sysbios_knl_Task_Object__get__S                                        
1001bc19  ti_sysbios_knl_Task_restoreHwi__E                                         
1001bc39  ti_sysbios_family_arm_m3_Hwi_Object__destruct__S                          
1001bc55  ti_sysbios_family_arm_m3_Hwi_setPriority__E                               
1001bc71  ti_sysbios_gates_GateMutex_Instance_init__E                               
1001bc8d  ti_sysbios_hal_Hwi_HwiProxy_create                                        
1001bca9  ti_sysbios_knl_Clock_scheduleNextTick__E                                  
1001bcc5  ti_sysbios_knl_Event_Object__destruct__S                                  
1001bce1  ti_sysbios_knl_Mailbox_Object__destruct__S                                
1001bcfd  ti_sysbios_knl_Queue_Object__destruct__S                                  
1001bd19  ti_sysbios_knl_Queue_get__E                                               
1001bd35  ti_sysbios_knl_Queue_put__E                                               
1001bd51  ti_sysbios_knl_Swi_Object__destruct__S                                    
1001bd6d  ti_sysbios_knl_Task_Object__destruct__S                                   
1001bd89  ti_sysbios_knl_Task_enter__I                                              
1001bda5  ti_sysbios_knl_Task_sleepTimeout__I                                       
1001bdbf  ti_sysbios_knl_Clock_triggerFunc__I                                       
1001bdc1  ti_sysbios_family_arm_m3_Hwi_plug__E                                      
1001bdd9  ti_sysbios_gates_GateMutex_leave__E                                       
1001bdf1  ti_sysbios_knl_Task_unblock__E                                            
1001be09  ti_sysbios_knl_Clock_Instance_finalize__E                                 
1001be1f  ti_sysbios_knl_Clock_start__E                                             
1001be35  ti_sysbios_family_arm_m3_Hwi_switchFromBootStack__E                       
1001be35  ti_sysbios_hal_Hwi_HwiProxy_switchFromBootStack__E                        
1001be35  ti_sysbios_hal_Hwi_HwiProxy_switchFromBootStack__E__mangled__             
1001be35  ti_sysbios_hal_Hwi_switchFromBootStack__E                                 
1001be35  ti_sysbios_hal_Hwi_switchFromBootStack__E                                 
1001be49  ti_sysbios_knl_Event_Instance_init__E                                     
1001be5d  ti_sysbios_hal_Hwi_Module_startup__E                                      
1001be6f  ti_sysbios_knl_Event_sync__E                                              
1001be81  ti_sysbios_BIOS_exit__E                                                   
1001be91  ti_sysbios_BIOS_getCpuFreq__E                                             
1001bea1  ti_sysbios_BIOS_setThreadType__E                                          
1001beb1  ti_sysbios_BIOS_start__E                                                  
1001bec1  ti_sysbios_gates_GateMutex_Instance_finalize__E                           
1001bed1  ti_sysbios_hal_Hwi_HwiProxy_Object__create__S                             
1001bee1  ti_sysbios_knl_Clock_TimerProxy_getCurrentTick__E                         
1001bef1  ti_sysbios_knl_Clock_TimerProxy_getMaxTicks__E                            
1001bf01  ti_sysbios_knl_Clock_TimerProxy_setNextTick__E                            
1001bf11  ti_sysbios_knl_Swi_disable__E                                             
1001bf21  ti_sysbios_knl_Swi_enabled__E                                             
1001bf31  ti_sysbios_knl_Task_disable__E                                            
1001bf41  ti_sysbios_heaps_HeapMem_restore__E                                       
1001bf4f  ti_sysbios_knl_Queue_empty__E                                             
1001bf5d  ti_sysbios_knl_Queue_remove__E                                            
1001bf6b  ti_sysbios_family_arm_cc26xx_TimestampProvider_getFreq__E                 
1001bf6b  xdc_runtime_Timestamp_SupportProxy_getFreq__E                             
1001bf6b  xdc_runtime_Timestamp_SupportProxy_getFreq__E__mangled__                  
1001bf6b  xdc_runtime_Timestamp_getFreq__E                                          
1001bf6b  xdc_runtime_Timestamp_getFreq__E                                          
1001bf77  ti_sysbios_knl_Swi_Instance_finalize__E                                   
1001bf79  ti_sysbios_family_arm_m3_Hwi_Params__init__S                              
1001bf79  ti_sysbios_hal_Hwi_HwiProxy_Params__init__S                               
1001bf79  ti_sysbios_hal_Hwi_HwiProxy_Params__init__S__mangled__                    
1001bf85  ti_sysbios_family_arm_m3_Hwi_disableFxn__E                                
1001bf91  ti_sysbios_family_arm_m3_Hwi_enableFxn__E                                 
1001bf9d  ti_sysbios_family_arm_m3_TaskSupport_getStackAlignment__E                 
1001bf9d  ti_sysbios_knl_Task_SupportProxy_getStackAlignment__E                     
1001bf9d  ti_sysbios_knl_Task_SupportProxy_getStackAlignment__E__mangled__          
1001bfa9  ti_sysbios_gates_GateHwi_enter__E                                         
1001bfb5  ti_sysbios_BIOS_RtsGateProxy_Params__init__S                              
1001bfb5  ti_sysbios_BIOS_RtsGateProxy_Params__init__S__mangled__                   
1001bfb5  ti_sysbios_gates_GateMutex_Params__init__S                                
1001bfb5  ti_sysbios_heaps_HeapMem_Module_GateProxy_Params__init__S                 
1001bfb5  ti_sysbios_heaps_HeapMem_Module_GateProxy_Params__init__S__mangled__      
1001bfc1  ti_sysbios_knl_Clock_Params__init__S                                      
1001bfcd  ti_sysbios_knl_Clock_getTimerHandle__E                                    
1001bfd9  ti_sysbios_knl_Event_Params__init__S                                      
1001bfe5  ti_sysbios_knl_Mailbox_Params__init__S                                    
1001bff1  ti_sysbios_knl_Queue_dequeue__E                                           
1001bffd  ti_sysbios_knl_Queue_enqueue__E                                           
1001c009  ti_sysbios_knl_Semaphore_Params__init__S                                  
1001c015  ti_sysbios_knl_Swi_Params__init__S                                        
1001c021  ti_sysbios_knl_Task_Params__init__S                                       
1001c02d  ti_sysbios_knl_Task_self__E                                               
1001c039  ti_sysbios_hal_Hwi_Instance_finalize__E                                   
1001c043  ti_sysbios_family_arm_m3_Hwi_doSwiRestore__I                              
1001c04b  ti_sysbios_family_arm_m3_Hwi_startup__E                                   
1001c04b  ti_sysbios_hal_Hwi_HwiProxy_startup__E                                    
1001c04b  ti_sysbios_hal_Hwi_HwiProxy_startup__E__mangled__                         
1001c04b  ti_sysbios_hal_Hwi_startup__E                                             
1001c04b  ti_sysbios_hal_Hwi_startup__E                                             
1001c053  ti_sysbios_knl_Idle_loop__E                                               
1001c05b  ti_sysbios_family_arm_m3_Hwi_doTaskRestore__I                             
1001c061  HwiP_restore                                                              
1001c061  ti_sysbios_family_arm_m3_Hwi_restoreFxn__E                                
1001c067  ti_sysbios_gates_GateHwi_leave__E                                         
1001c06d  ti_sysbios_heaps_HeapMem_isBlocking__E                                    
1001c073  ti_sysbios_knl_Queue_Instance_init__E                                     
1001c079  ti_sysbios_knl_Queue_elemClear__E                                         
1001c07f  ti_sysbios_knl_Swi_Module_startup__E                                      
1001c085  ti_sysbios_knl_Swi_startup__E                                             
1001c08b  ti_sysbios_knl_Task_enable__E                                             
1001c091  ti_sysbios_BIOS_RtsGateProxy_enter__E                                     
1001c095  ti_sysbios_BIOS_RtsGateProxy_leave__E                                     
1001c099  ti_sysbios_family_arm_cc26xx_Timer_getExpiredTicks__E                     
1001c09d  ti_sysbios_family_arm_cc26xx_Timer_getPeriod__E                           
1001c0a1  ti_sysbios_family_arm_cc26xx_Timer_setPeriod__E                           
1001c0a5  ti_sysbios_family_arm_m3_Hwi_delete                                       
1001c0a9  ti_sysbios_family_arm_m3_Hwi_destruct                                     
1001c0ad  ti_sysbios_family_arm_m3_TaskSupport_Module__startupDone__S               
1001c0ad  ti_sysbios_knl_Task_SupportProxy_Module__startupDone__S                   
1001c0ad  ti_sysbios_knl_Task_SupportProxy_Module__startupDone__S__mangled__        
1001c0b1  ti_sysbios_gates_GateHwi_query__E                                         
1001c0b1  xdc_runtime_Main_Module_GateProxy_query__E                                
1001c0b1  xdc_runtime_System_Module_GateProxy_query__E                              
1001c0b1  xdc_runtime_System_Module_GateProxy_query__E__mangled__                   
1001c0b5  ti_sysbios_gates_GateMutex_delete                                         
1001c0b9  ti_sysbios_gates_GateMutex_destruct                                       
1001c0bd  ti_sysbios_BIOS_RtsGateProxy_query__E                                     
1001c0bd  ti_sysbios_BIOS_RtsGateProxy_query__E__mangled__                          
1001c0bd  ti_sysbios_gates_GateMutex_query__E                                       
1001c0bd  ti_sysbios_heaps_HeapMem_Module_GateProxy_query__E                        
1001c0bd  ti_sysbios_heaps_HeapMem_Module_GateProxy_query__E__mangled__             
1001c0c1  ti_sysbios_hal_Hwi_HwiProxy_delete                                        
1001c0c5  ti_sysbios_hal_Hwi_delete                                                 
1001c0c9  ti_sysbios_heaps_HeapMem_Module_GateProxy_enter__E                        
1001c0cd  ti_sysbios_heaps_HeapMem_Module_GateProxy_leave__E                        
1001c0d1  ti_sysbios_knl_Clock_TimerProxy_getExpiredTicks__E                        
1001c0d5  ti_sysbios_knl_Clock_TimerProxy_getPeriod__E                              
1001c0d9  ti_sysbios_knl_Clock_delete                                               
1001c0dd  ti_sysbios_knl_Clock_destruct                                             
1001c0e1  ti_sysbios_knl_Clock_removeI__E                                           
1001c0e5  ti_sysbios_knl_Clock_setTimeout__E                                        
1001c0e9  ti_sysbios_knl_Event_delete                                               
1001c0ed  ti_sysbios_knl_Event_destruct                                             
1001c0f1  ti_sysbios_knl_Mailbox_delete                                             
1001c0f5  ti_sysbios_knl_Mailbox_destruct                                           
1001c0f9  ti_sysbios_knl_Queue_delete                                               
1001c0fd  ti_sysbios_knl_Queue_destruct                                             
1001c101  ti_sysbios_knl_Queue_head__E                                              
1001c105  ti_sysbios_knl_Queue_next__E                                              
1001c109  ti_sysbios_knl_Semaphore_delete                                           
1001c10d  ti_sysbios_knl_Semaphore_destruct                                         
1001c111  ti_sysbios_knl_Swi_delete                                                 
1001c115  ti_sysbios_knl_Swi_destruct                                               
1001c119  ti_sysbios_knl_Swi_postInit__I                                            
1001c11d  ti_sysbios_knl_Task_delete                                                
1001c121  ti_sysbios_knl_Task_destruct                                              
1001c125  ti_sysbios_knl_Task_startup__E                                            
1001c129  xdc_runtime_Startup_startMods__I                                          
1001c2c9  xdc_runtime_Core_createObject__I                                          
1001c349  xdc_runtime_Memory_alloc__E                                               
1001c3b5  xdc_runtime_Core_deleteObject__I                                          
1001c413  xdc_runtime_Error_policySpin__E                                           
1001c415  xdc_runtime_Startup_exec__E                                               
1001c465  xdc_runtime_Assert_raise__I                                               
1001c4ad  xdc_runtime_Core_assignParams__I                                          
1001c4f5  xdc_runtime_Core_constructObject__I                                       
1001c581  xdc_runtime_System_atexit__E                                              
1001c5b9  xdc_runtime_Core_assignLabel__I                                           
1001c5ed  xdc_runtime_System_processAtExit__E                                       
1001c621  xdc_runtime_Text_cordText__E                                              
1001c64d  xdc_runtime_System_abort__E                                               
1001c66d  xdc_runtime_Error_raiseX__E                                               
1001c689  xdc_runtime_Memory_valloc__E                                              
1001c6a5  xdc_runtime_Core_destructObject__I                                        
1001c6bd  xdc_runtime_Error_check__E                                                
1001c6d5  xdc_runtime_System_exit__E                                                
1001c6ed  xdc_runtime_Text_ropeText__E                                              
1001c705  xdc_runtime_Memory_free__E                                                
1001c715  xdc_runtime_SysCallback_abort__E                                          
1001c715  xdc_runtime_System_SupportProxy_abort__E                                  
1001c725  xdc_runtime_SysCallback_exit__E                                           
1001c725  xdc_runtime_System_SupportProxy_exit__E                                   
1001c735  xdc_runtime_Timestamp_SupportProxy_get32__E                               
1001c735  xdc_runtime_Timestamp_get32__E                                            
1001c735  xdc_runtime_Timestamp_get32__E                                            
1001c751  xdc_runtime_Memory_calloc__E                                              
1001c75d  xdc_runtime_Memory_getMaxDefaultTypeAlign__E                              
1001c769  xdc_runtime_Startup_rtsDone__E                                            
1001c775  xdc_runtime_Memory_HeapProxy_alloc__E                                     
1001c77f  xdc_runtime_Memory_HeapProxy_free__E                                      
1001c789  xdc_runtime_Gate_leaveSystem__E                                           
1001c78f  xdc_runtime_System_Module_startup__E                                      
1001c795  xdc_runtime_Gate_enterSystem__E                                           
1001c799  xdc_runtime_System_Module_GateProxy_enter__E                              
1001c79d  xdc_runtime_System_Module_GateProxy_leave__E                              
1001c7a1  xdc_runtime_System_abortSpin__E                                           
1001c7a3  xdc_runtime_System_exitSpin__E                                            
1001c7a5  ti_sysbios_family_arm_m3_Hwi_dispatch__I                                  
1001c86d  ti_sysbios_family_arm_m3_TaskSupport_buildTaskStack                       
1001c8b9  ti_sysbios_family_arm_m3_Hwi_initStacks__E                                
1001c901  ti_sysbios_family_arm_m3_Hwi_excHandlerAsm__I                             
1001c921  ti_sysbios_family_xxx_Hwi_switchAndRunFunc                                
1001c93f  ti_sysbios_family_arm_m3_Hwi_pendSV__I                                    
1001c957  ti_sysbios_family_arm_m3_Hwi_return                                       
1001c959  ti_sysbios_family_arm_m3_TaskSupport_glue                                 
1001c969  ti_sysbios_family_arm_m3_TaskSupport_swap__E                              
1001c969  ti_sysbios_knl_Task_SupportProxy_swap__E                                  
1001c969  ti_sysbios_knl_Task_SupportProxy_swap__E__mangled__                       
1001c971  ti_sysbios_knl_Task_swapReturn                                            
1001c978  ti_sysbios_knl_Task_Object__PARAMS__C                                     
1001c9b4  ti_sysbios_knl_Mailbox_Object__PARAMS__C                                  
1001c9e8  ti_sysbios_family_arm_m3_Hwi_Object__PARAMS__C                            
1001ca18  ti_sysbios_hal_Hwi_Object__PARAMS__C                                      
1001ca44  ti_sysbios_knl_Swi_Object__PARAMS__C                                      
1001ca6c  ti_sysbios_heaps_HeapMem_Object__PARAMS__C                                
1001ca90  ti_sysbios_knl_Clock_Object__PARAMS__C                                    
1001cab4  ti_sysbios_knl_Semaphore_Object__PARAMS__C                                
1001cad8  ti_sysbios_gates_GateHwi_Object__PARAMS__C                                
1001caf0  ti_sysbios_gates_GateMutex_Object__PARAMS__C                              
1001cb08  ti_sysbios_knl_Event_Object__PARAMS__C                                    
1001cb20  ti_sysbios_knl_Queue_Object__PARAMS__C                                    
1001cb68  ti_sysbios_gates_GateMutex_Instance_State_sem__O                          
1001cb6c  ti_sysbios_knl_Clock_Module_State_clockQ__O                               
1001cb70  ti_sysbios_knl_Event_Instance_State_pendQ__O                              
1001cb74  ti_sysbios_knl_Mailbox_Instance_State_dataQue__O                          
1001cb78  ti_sysbios_knl_Mailbox_Instance_State_dataSem__O                          
1001cb7c  ti_sysbios_knl_Mailbox_Instance_State_freeQue__O                          
1001cb80  ti_sysbios_knl_Mailbox_Instance_State_freeSem__O                          
1001cb84  ti_sysbios_knl_Semaphore_Instance_State_pendQ__O                          
1001cb88  ti_sysbios_knl_Task_Module_State_inactiveQ__O                             
20000000  __UNUSED_SRAM_start__                                                     
20000000  ti_sysbios_family_arm_m3_Hwi_ramVectors                                   
20000100  ti_sysbios_knl_Task_Module__state__V                                      
20000144  ti_sysbios_family_arm_m3_Hwi_Module__state__V                             
20000178  ti_sysbios_knl_Clock_Module__state__V                                     
200001a4  ti_sysbios_BIOS_Module__state__V                                          
200001c8  ti_sysbios_knl_Swi_Module__state__V                                       
200001e4  ti_sysbios_family_arm_cc26xx_Timer_Module__state__V                       
200001ec  ti_sysbios_family_arm_cc26xx_TimestampProvider_Module__state__V           
200001f0  xdc_runtime_Startup_Module__state__V                                      
200001f8  xdc_runtime_System_Module__state__V                                       
20000200  xdc_runtime_Memory_Module__state__V                                       
20000204  xdc_runtime_Error_Module__state__V                                        
20000520  ramStartHere                                                              
20000524  previonsMode                                                              
20000525  iExpectedCrc                                                              
20000526  iCurrCmd                                                                  
20000527  NumLastBase                                                               
20000528  currPosBaseTable                                                          
2000052a  iRecivedLen                                                               
2000052c  iSendedLen                                                                
2000052e  iExpectedLen                                                              
20000530  iBuffInLen                                                                
20000532  iBuffOutLen                                                               
20000534  dispHandle                                                                
20000548  pBuffIn                                                                   
2000054c  pBuffOut                                                                  
20000550  TimeLastBase                                                              
20000554  timeShutdown                                                              
20000560  connectionEventRegisterCauseBitMap                                        
20000564  curCmd                                                                    
20000590  AdvTypeStrings                                                            
200005fc  sbpTask                                                                   
200006aa  cur_tag_settings                                                          
20000736  arBaseTable                                                               
20000838  sbpTaskStack                                                              
20000b58  linkDBNumConns                                                            
20000c6c  gapRoleTask                                                               
20000cc0  gapRoleTaskStack                                                          
20000eb2  metaPage                                                                  
20001378  pinUpperBound                                                             
2000137c  pinLowerBound                                                             
20001410  pinHandleTable                                                            
2000148c  PowerCC26XX_module                                                        
200015a0  maxR                                                                      
200015a1  outR                                                                      
200015a2  maxG                                                                      
200015a3  outG                                                                      
200015a4  maxV                                                                      
200015a5  outV                                                                      
200015a6  iR                                                                        
200015a7  valR                                                                      
200015a8  iG                                                                        
200015a9  valG                                                                      
200015aa  iV                                                                        
200015ab  valV                                                                      
200015ac  cntR                                                                      
200015ad  cntG                                                                      
200015ae  cntV                                                                      
200015af  ignoreR                                                                   
200015b0  ignoreG                                                                   
200015b1  ignoreV                                                                   
200015b2  change_md                                                                 
200015ba  run_md                                                                    
200015c2  conn_md                                                                   
200015ca  on_pw                                                                     
200015d2  off_pw                                                                    
200015da  simpleblink                                                               
200015e6  akk_full                                                                  
200015f2  akk_medium                                                                
200015fe  akk_low                                                                   
2000160a  start_st                                                                  
20001616  finish_st                                                                 
20001624  redBP                                                                     
20001630  greenBP                                                                   
2000163c  vibroBP                                                                   
20001648  normal_st                                                                 
20001660  appKeyChangeHandler                                                       
20001664  hKeyPins                                                                  
20001668  ledPinHandle                                                              
2000166c  ButtonTableWakeUp                                                         
20001674  keyPinsCfg                                                                
20001680  keyPins                                                                   
2000168c  ledPinState                                                               
20001698  ledPinTable                                                               
2000171c  ICall_enterCriticalSection                                                
20001720  ICall_leaveCriticalSection                                                
20001730  heapmgrMemFreeTotal                                                       
2000173c  HEAPMGR_SIZE                                                              
20001740  ICall_dispatcher                                                          
2000181c  ti_sysbios_knl_Task_Object__table__V                                      
20001868  ti_sysbios_family_arm_cc26xx_Timer_Object__table__V                       
200018b0  ti_sysbios_hal_SecondsClock_Module__state__V                              
200018ec  ti_sysbios_gates_GateMutex_Object__table__V                               
20001924  rfRegTbl                                                                  
20001954  ti_sysbios_knl_Swi_Module_State_0_readyQ__A                               
20001984  ti_sysbios_knl_Swi_Object__table__V                                       
200019b4  ti_sysbios_knl_Task_Module_State_0_readyQ__A                              
200019ec  K2_mont                                                                   
20001a4c  ti_sysbios_knl_Clock_Object__table__V                                     
20001a6c  xdc_runtime_Error_IgnoreBlock                                             
20001a8c  ti_sysbios_family_arm_m3_Hwi_Object__table__V                             
20001aa4  stackImageHeader                                                          
20001aa8  user0Cfg                                                                  
20001ab8  bleAppServiceInfoTable                                                    
20001ac8  rfModeOverride                                                            
20001ad8  ti_sysbios_heaps_HeapCallback_Object__table__V                            
20001af8  pfnBMAlloc                                                                
20001afc  pfnBMFree                                                                 
20001b00  assertSubcause                                                            
20001b01  legacyMode                                                                
20001b04  halAssertCback                                                            
20001b08  _lock                                                                     
20001b0c  _unlock                                                                   
20001b10  pRfErrCb                                                                  
20001b14  lastAppOpcodeIdxSent                                                      
20001b18  ti_sysbios_family_arm_cc26xx_Seconds_Module__state__V                     
20001b20  ti_sysbios_family_arm_m3_Hwi_Module__root__V                              
20001b28  ti_sysbios_gates_GateHwi_Module__root__V                                  
20001b30  ti_sysbios_gates_GateMutex_Module__root__V                                
20001b38  ti_sysbios_hal_Hwi_Module__root__V                                        
20001b40  ti_sysbios_heaps_HeapCallback_Module__root__V                             
20001b48  ti_sysbios_heaps_HeapMem_Module__root__V                                  
20001b50  ti_sysbios_knl_Clock_Module__root__V                                      
20001b58  ti_sysbios_knl_Event_Module__root__V                                      
20001b60  ti_sysbios_knl_Mailbox_Module__root__V                                    
20001b68  ti_sysbios_knl_Queue_Module__root__V                                      
20001b70  ti_sysbios_knl_Semaphore_Module__root__V                                  
20001b78  ti_sysbios_knl_Swi_Module__root__V                                        
20001b80  ti_sysbios_knl_Task_Module__root__V                                       
20001b88  xdc_runtime_Registry_Module__state__V                                     
20001b90  appAssertCback                                                            
20001b98  main_func_sp                                                              
20001b9c  ti_sysbios_family_arm_m3_Hwi_Module_State_0_excContext__A                 
20001ba0  ti_sysbios_family_arm_m3_Hwi_Module_State_0_excStack__A                   
20001ba4  ti_sysbios_knl_Task_Module_State_0_idleTask__A                            
20001ba8  ti_sysbios_family_arm_m3_Hwi_Module_State_0_excActive__A                  
20001f50  ti_sysbios_knl_Task_Instance_State_0_stack__A                             
20002150  spiCC26XXDMAObjects                                                       
20002318  uartCC26XXObjects                                                         
20002440  crcBuf                                                                    
20002540  adcCC26xxObjects                                                          
2000261c  ti_sysbios_family_arm_m3_Hwi_dispatchTable                                
20002764  cryptoCC26XXObjects                                                       
200027e4  uartCC26XXRingBuffer                                                      
20002804  udmaObjects                                                               
2000285c  displayUartObject                                                         
20002868  PowerCC26XX_taskKey                                                       
2000286c  PowerCC26XX_swiKey                                                        
20002878  ClockP_tickPeriod                                                         
2000287c  trngCC26XXObjects                                                         
20002884  driverlib_release_0_53646                                                 
20002885  heapStart                                                                 
20003b50  __stack                                                                   
20003b50  heapEnd                                                                   
20003f50  __STACK_END                                                               
20003f50  __STACK_TOP                                                               
20004f80  eccRom_param_Gx                                                           
20004f84  eccRom_param_Gy                                                           
20004f88  eccRom_workzone                                                           
20004f8c  eccRom_param_p                                                            
20004f90  eccRom_param_r                                                            
20004f94  eccRom_param_a                                                            
20004f98  eccRom_param_b                                                            
20004f9c  eccRom_windowSize                                                         
20005000  __UNUSED_SRAM_end__                                                       
e000e000  ti_sysbios_family_arm_m3_Hwi_nvic                                         
ffffffff  __TI_pprof_out_hndl                                                       
ffffffff  __TI_prof_data_size                                                       
ffffffff  __TI_prof_data_start                                                      
ffffffff  __binit__                                                                 
ffffffff  __c_args__                                                                
ffffffff  binit                                                                     
UNDEFED   SHT$$INIT_ARRAY$$Base                                                     
UNDEFED   SHT$$INIT_ARRAY$$Limit                                                    

[1216 symbols]
